(dp1
S'epsilon'
p2
F0.5
sS'qtable'
p3
(dp4
(I1
(I1
I-7
I4
tp5
tp6
F0
s(I0
(I10
I12
I2
tp7
tp8
F0
s(I1
(I10
I15
I-2
tp9
tp10
F0
s(I0
(I6
I-4
I2
tp11
tp12
F0.40787565204554704
s(I1
(I7
I-13
I-1
tp13
tp14
F0
s(I1
(I10
I7
I3
tp15
tp16
F0
s(I0
(I-1
I-15
I0
tp17
tp18
F0
s(I1
(I8
I15
I0
tp19
tp20
F0
s(I1
(I10
I-15
I0
tp21
tp22
F0
s(I0
(I10
I-10
I2
tp23
tp24
F0
s(I1
(I4
I-6
I3
tp25
tp26
F0
s(I0
(I9
I-7
I3
tp27
tp28
F0
s(I0
(I6
I0
I-2
tp29
tp30
F0
s(I1
(I4
I14
I3
tp31
tp32
F0
s(I1
(I3
I-5
I-2
tp33
tp34
F0
s(I0
(I7
I11
I4
tp35
tp36
F-99.99944309565258
s(I1
(I0
I-14
I4
tp37
tp38
F0
s(I1
(I3
I15
I4
tp39
tp40
F0
s(I0
(I8
I-8
I-2
tp41
tp42
F0
s(I1
(I5
I2
I3
tp43
tp44
F1.0226358819171135
s(I1
(I7
I4
I4
tp45
tp46
F0.16383901399451239
s(I0
(I-1
I15
I4
tp47
tp48
F0
s(I1
(I7
I-16
I1
tp49
tp50
F0
s(I0
(I3
I7
I3
tp51
tp52
F-99.999993227815608
s(I0
(I6
I11
I2
tp53
tp54
F-99.999990420279147
s(I1
(I5
I-13
I0
tp55
tp56
F0
s(I0
(I7
I12
I4
tp57
tp58
F0
s(I1
(I7
I13
I1
tp59
tp60
F0
s(I1
(I5
I-6
I-2
tp61
tp62
F0
s(I0
(I0
I16
I-2
tp63
tp64
F0
s(I0
(I9
I14
I3
tp65
tp66
F0
s(I0
(I9
I2
I2
tp67
tp68
F-4.7250178805445842
s(I1
(I7
I-10
I-1
tp69
tp70
F-38.182784309837118
s(I0
(I10
I-13
I2
tp71
tp72
F0
s(I1
(I6
I-2
I4
tp73
tp74
F0
s(I0
(I3
I-10
I0
tp75
tp76
F-6.399987480092129
s(I1
(I-1
I4
I3
tp77
tp78
F8.9384116130106789e-06
s(I1
(I2
I-11
I-2
tp79
tp80
F0
s(I1
(I0
I4
I3
tp81
tp82
F-99.999808405295781
s(I1
(I1
I15
I1
tp83
tp84
F0
s(I0
(I-1
I-3
I-2
tp85
tp86
F0
s(I1
(I1
I0
I-2
tp87
tp88
F0
s(I1
(I2
I4
I4
tp89
tp90
F-14.483888516519807
s(I0
(I1
I-4
I1
tp91
tp92
F-39.800462745793482
s(I1
(I0
I0
I3
tp93
tp94
F100.01031113214071
s(I1
(I8
I13
I-2
tp95
tp96
F0
s(I0
(I6
I2
I4
tp97
tp98
F-99.999998405122412
s(I0
(I5
I8
I2
tp99
tp100
F-1.0240168885168099
s(I0
(I9
I-9
I1
tp101
tp102
F0.0260937220013867
s(I1
(I6
I15
I2
tp103
tp104
F0
s(I1
(I5
I-5
I4
tp105
tp106
F0
s(I1
(I10
I0
I0
tp107
tp108
F0
s(I0
(I6
I12
I4
tp109
tp110
F0
s(I1
(I4
I-11
I2
tp111
tp112
F0
s(I1
(I4
I-13
I-2
tp113
tp114
F0
s(I0
(I6
I-1
I1
tp115
tp116
F0.37777536590926208
s(I1
(I1
I-4
I0
tp117
tp118
F-39.999980564261918
s(I1
(I2
I-3
I1
tp119
tp120
F-15.999997999769068
s(I0
(I4
I-8
I-2
tp121
tp122
F0
s(I1
(I1
I12
I0
tp123
tp124
F0
s(I1
(I6
I5
I1
tp125
tp126
F0.40964273811323804
s(I1
(I6
I-15
I-2
tp127
tp128
F0
s(I0
(I2
I0
I-2
tp129
tp130
F0
s(I0
(I-1
I-15
I1
tp131
tp132
F0
s(I0
g93
tp133
F90.486175327004958
s(I1
(I5
I-4
I0
tp134
tp135
F0.5959929231000336
s(I0
(I-1
I-8
I0
tp136
tp137
F0.00023017620962317503
s(I0
(I6
I11
I4
tp138
tp139
F-99.999791728280442
s(I1
(I3
I-8
I2
tp140
tp141
F-6.4963522487847003
s(I1
(I3
I10
I2
tp142
tp143
F-6.3999264904699631
s(I1
(I0
I1
I4
tp144
tp145
F100.01048684243102
s(I1
g109
tp146
F0
s(I1
(I7
I-4
I-2
tp147
tp148
F0
s(I1
(I6
I16
I2
tp149
tp150
F0
s(I0
(I6
I-7
I-1
tp151
tp152
F0.33598119515786751
s(I0
(I2
I-14
I2
tp153
tp154
F0
s(I1
(I3
I-5
I-1
tp155
tp156
F-10.925997754571995
s(I1
(I0
I8
I1
tp157
tp158
F-99.999998054719484
s(I1
(I8
I15
I-1
tp159
tp160
F0
s(I0
(I10
I-5
I-2
tp161
tp162
F0
s(I1
(I0
I-12
I-1
tp163
tp164
F-99.999971397992198
s(I0
(I4
I11
I2
tp165
tp166
F-99.999789233348068
s(I0
(I10
I-14
I1
tp167
tp168
F0
s(I1
(I5
I-15
I-1
tp169
tp170
F0
s(I0
(I0
I5
I1
tp171
tp172
F-99.999802835963365
s(I0
g144
tp173
F-99.999976715111927
s(I1
(I2
I-7
I3
tp174
tp175
F0
s(I0
(I3
I-2
I0
tp176
tp177
F-5.1562621289696784
s(I1
(I10
I-6
I4
tp178
tp179
F0
s(I0
(I8
I-8
I-1
tp180
tp181
F-0.074304053406704318
s(I1
(I1
I3
I1
tp182
tp183
F-39.999974402748784
s(I0
(I1
I-10
I2
tp184
tp185
F0
s(I1
(I9
I-14
I2
tp186
tp187
F0
s(I0
(I1
I14
I-2
tp188
tp189
F0
s(I1
(I9
I5
I1
tp190
tp191
F0.026211838388269175
s(I0
(I2
I-13
I4
tp192
tp193
F0
s(I1
(I2
I-10
I2
tp194
tp195
F0
s(I1
(I10
I9
I4
tp196
tp197
F0
s(I0
(I-1
I-8
I2
tp198
tp199
F7.234276073023356e-05
s(I1
(I2
I-13
I0
tp200
tp201
F0
s(I1
(I10
I-11
I3
tp202
tp203
F0
s(I0
(I9
I-12
I0
tp204
tp205
F0.025789101264398543
s(I0
(I6
I-13
I0
tp206
tp207
F0
s(I0
(I10
I4
I-1
tp208
tp209
F0
s(I0
(I6
I-2
I-2
tp210
tp211
F0
s(I1
(I8
I-7
I2
tp212
tp213
F-1.018673387583485
s(I1
(I4
I-2
I0
tp214
tp215
F-2.0950751236116476
s(I1
(I7
I12
I1
tp216
tp217
F0
s(I0
(I8
I16
I0
tp218
tp219
F0
s(I1
(I6
I11
I-1
tp220
tp221
F0
s(I0
(I8
I-14
I0
tp222
tp223
F0
s(I1
(I7
I15
I3
tp224
tp225
F0
s(I0
(I9
I-2
I-2
tp226
tp227
F0
s(I0
(I7
I2
I2
tp228
tp229
F0.16385714246210531
s(I0
(I0
I13
I1
tp230
tp231
F0
s(I1
(I-1
I14
I0
tp232
tp233
F0
s(I1
(I3
I16
I4
tp234
tp235
F0
s(I0
(I1
I12
I-2
tp236
tp237
F0
s(I0
(I0
I-14
I2
tp238
tp239
F0
s(I1
(I7
I-12
I0
tp240
tp241
F-99.999975850450227
s(I1
(I3
I5
I-1
tp242
tp243
F-6.3366592695429214
s(I1
(I7
I-15
I-1
tp244
tp245
F0
s(I0
(I-1
I15
I2
tp246
tp247
F0
s(I0
(I5
I13
I-1
tp248
tp249
F0
s(I1
(I1
I14
I3
tp250
tp251
F0
s(I1
(I8
I-10
I4
tp252
tp253
F0
s(I0
(I6
I15
I0
tp254
tp255
F0
s(I1
(I7
I7
I-2
tp256
tp257
F0
s(I0
(I1
I4
I3
tp258
tp259
F-97.142486655927158
s(I0
(I2
I10
I0
tp260
tp261
F-15.199995891706667
s(I0
(I10
I3
I2
tp262
tp263
F0
s(I0
(I4
I6
I4
tp264
tp265
F-99.999994990500397
s(I1
(I2
I13
I4
tp266
tp267
F0
s(I0
(I7
I6
I-1
tp268
tp269
F0.16385710596395422
s(I0
(I10
I-9
I4
tp270
tp271
F0
s(I1
(I6
I-8
I1
tp272
tp273
F-7.9611258107214482
s(I1
(I5
I9
I0
tp274
tp275
F-1.0237466629989989
s(I1
(I1
I-9
I4
tp276
tp277
F0
s(I1
(I10
I-2
I0
tp278
tp279
F0
s(I0
(I1
I-15
I1
tp280
tp281
F0
s(I1
(I1
I-6
I2
tp282
tp283
F-39.999996319733107
s(I0
(I-1
I-1
I2
tp284
tp285
F3.8343906507684095e-06
s(I0
(I-1
I12
I2
tp286
tp287
F0
s(I1
(I3
I-4
I4
tp288
tp289
F0
s(I1
(I5
I-16
I4
tp290
tp291
F0
s(I0
(I9
I-15
I0
tp292
tp293
F0
s(I1
(I10
I16
I-1
tp294
tp295
F0
s(I1
(I1
I-8
I3
tp296
tp297
F0
s(I0
(I6
I5
I2
tp298
tp299
F-0.34485228592938688
s(I1
(I-1
I-10
I2
tp300
tp301
F0
s(I0
(I2
I7
I4
tp302
tp303
F-99.999993299018186
s(I1
(I4
I4
I-2
tp304
tp305
F0
s(I0
(I3
I-1
I0
tp306
tp307
F6.4005883988964349
s(I0
(I3
I-15
I2
tp308
tp309
F0
s(I0
(I4
I-15
I-2
tp310
tp311
F0
s(I1
(I4
I-5
I4
tp312
tp313
F0
s(I0
(I-1
I-15
I-2
tp314
tp315
F0
s(I1
(I3
I8
I4
tp316
tp317
F-6.3999832318821497
s(I1
(I0
I-5
I4
tp318
tp319
F0
s(I1
(I2
I5
I2
tp320
tp321
F-15.999993980111265
s(I1
(I7
I7
I1
tp322
tp323
F0.16385707861971069
s(I0
(I-1
I-6
I2
tp324
tp325
F0.0004612242919913561
s(I0
(I0
I7
I3
tp326
tp327
F-99.999974197058208
s(I0
(I0
I11
I2
tp328
tp329
F-99.999795684788609
s(I0
(I1
I15
I0
tp330
tp331
F0
s(I1
(I2
I14
I0
tp332
tp333
F0
s(I0
(I-1
I3
I0
tp334
tp335
F5.8295549232313451e-06
s(I0
(I3
I0
I4
tp336
tp337
F0
s(I1
(I3
I1
I1
tp338
tp339
F5.3237004309325426
s(I0
(I8
I-15
I2
tp340
tp341
F0
s(I1
(I5
I-6
I-1
tp342
tp343
F-1.0357073530611667
s(I0
(I1
I-4
I4
tp344
tp345
F0
s(I1
(I9
I2
I1
tp346
tp347
F0.024268731135048554
s(I0
(I7
I14
I3
tp348
tp349
F0
s(I1
(I3
I-6
I-1
tp350
tp351
F-6.4000584202090325
s(I1
(I1
I-6
I-1
tp352
tp353
F-40.142488138712011
s(I0
(I2
I-12
I1
tp354
tp355
F-15.999990545421399
s(I0
(I5
I11
I-1
tp356
tp357
F0
s(I0
(I0
I16
I-1
tp358
tp359
F0
s(I0
(I-1
I-1
I0
tp360
tp361
F4.1649444185791627e-06
s(I0
(I10
I5
I3
tp362
tp363
F0
s(I1
(I7
I0
I0
tp364
tp365
F0.14962566841132172
s(I1
g326
tp366
F-99.999974401746456
s(I1
(I10
I-4
I0
tp367
tp368
F0
s(I0
(I3
I2
I4
tp369
tp370
F-99.999995274828478
s(I1
(I4
I6
I-2
tp371
tp372
F0
s(I1
(I8
I-4
I0
tp373
tp374
F-0.036998915297870222
s(I1
(I8
I16
I3
tp375
tp376
F0
s(I0
(I3
I-5
I4
tp377
tp378
F0
s(I0
(I1
I2
I4
tp379
tp380
F-99.999510158820911
s(I0
(I3
I-16
I-1
tp381
tp382
F0
s(I1
(I7
I-10
I-2
tp383
tp384
F0
s(I0
(I8
I-12
I2
tp385
tp386
F0
s(I1
(I4
I8
I0
tp387
tp388
F-2.5490235966326251
s(I1
(I1
I14
I4
tp389
tp390
F0
s(I1
(I1
I9
I2
tp391
tp392
F-39.999895991286166
s(I0
(I10
I6
I-2
tp393
tp394
F0
s(I1
(I6
I-1
I4
tp395
tp396
F0
s(I0
(I10
I-8
I3
tp397
tp398
F0
s(I0
(I5
I-5
I3
tp399
tp400
F0
s(I1
(I2
I13
I1
tp401
tp402
F0
s(I0
g375
tp403
F0
s(I0
g186
tp404
F0
s(I0
(I8
I-15
I4
tp405
tp406
F0
s(I0
(I6
I16
I-2
tp407
tp408
F0
s(I1
(I1
I-14
I3
tp409
tp410
F0
s(I1
(I10
I-7
I2
tp411
tp412
F0
s(I1
(I2
I8
I3
tp413
tp414
F-15.999963218527409
s(I0
(I6
I9
I3
tp415
tp416
F-99.999996040372167
s(I0
(I8
I-1
I2
tp417
tp418
F0.065528100558301328
s(I0
(I2
I-6
I3
tp419
tp420
F0
s(I1
(I2
I4
I2
tp421
tp422
F12.88560822774555
s(I1
(I10
I1
I-2
tp423
tp424
F0
s(I0
(I6
I-5
I2
tp425
tp426
F0.40778642901813716
s(I1
(I0
I5
I3
tp427
tp428
F-99.999993896759975
s(I0
g389
tp429
F0
s(I0
(I8
I-9
I-2
tp430
tp431
F0
s(I0
(I0
I10
I-1
tp432
tp433
F-99.999994257154555
s(I0
(I1
I-16
I0
tp434
tp435
F0
s(I0
(I9
I-11
I-2
tp436
tp437
F0
s(I1
(I0
I2
I1
tp438
tp439
F90.009919664463197
s(I0
(I8
I10
I3
tp440
tp441
F-99.999452032794963
s(I0
g212
tp442
F0.065479560394094805
s(I0
(I-1
I14
I3
tp443
tp444
F0
s(I1
(I5
I14
I2
tp445
tp446
F0
s(I0
(I7
I16
I-2
tp447
tp448
F0
s(I1
(I9
I-1
I4
tp449
tp450
F0
s(I1
(I5
I12
I-2
tp451
tp452
F0
s(I1
(I8
I12
I-1
tp453
tp454
F0
s(I0
(I1
I-9
I3
tp455
tp456
F0
s(I1
(I1
I1
I4
tp457
tp458
F40.004173161048506
s(I0
(I5
I-2
I2
tp459
tp460
F1.024081445017786
s(I0
(I3
I-9
I2
tp461
tp462
F6.3717896825612019
s(I0
(I9
I-5
I4
tp463
tp464
F0
s(I0
g411
tp465
F0
s(I0
(I8
I-7
I-2
tp466
tp467
F0
s(I1
(I2
I-14
I1
tp468
tp469
F0
s(I0
(I1
I12
I4
tp470
tp471
F0
s(I1
(I4
I-8
I0
tp472
tp473
F-2.5600908627788188
s(I1
(I0
I-5
I-2
tp474
tp475
F0
s(I1
(I4
I-9
I1
tp476
tp477
F-3.1723181157253846
s(I0
(I9
I-12
I-2
tp478
tp479
F0
s(I0
(I2
I-9
I1
tp480
tp481
F-15.999987672526894
s(I0
(I7
I13
I-1
tp482
tp483
F0
s(I1
(I6
I8
I3
tp484
tp485
F0.40355382485329061
s(I0
(I9
I12
I4
tp486
tp487
F0
s(I0
(I9
I-1
I-2
tp488
tp489
F0
s(I0
(I0
I-2
I-1
tp490
tp491
F-99.524704169881858
s(I1
g443
tp492
F0
s(I0
(I9
I-14
I4
tp493
tp494
F0
s(I0
(I9
I-10
I-1
tp495
tp496
F-95.179338489868314
s(I0
(I-1
I-1
I3
tp497
tp498
F0.00050336558215829941
s(I1
(I10
I-16
I3
tp499
tp500
F0
s(I1
(I1
I0
I2
tp501
tp502
F40.003713898082268
s(I1
(I6
I4
I-1
tp503
tp504
F0.40963042484235468
s(I1
(I3
I-6
I1
tp505
tp506
F-6.4002985531972802
s(I1
(I-1
I-16
I4
tp507
tp508
F0
s(I0
(I0
I-1
I2
tp509
tp510
F100.01040261149807
s(I0
(I0
I13
I4
tp511
tp512
F0
s(I0
(I9
I0
I-1
tp513
tp514
F0.026207729377625534
s(I1
(I3
I0
I1
tp515
tp516
F5.7969016927913479
s(I1
(I4
I-7
I2
tp517
tp518
F-2.5995204284568962
s(I0
(I1
I5
I2
tp519
tp520
F-97.007477574242486
s(I1
(I4
I-6
I-1
tp521
tp522
F-2.5715719281709437
s(I1
(I2
I9
I3
tp523
tp524
F-15.999997937191743
s(I0
(I7
I11
I2
tp525
tp526
F-99.999791619588805
s(I1
(I9
I-5
I-2
tp527
tp528
F0
s(I0
(I5
I10
I-2
tp529
tp530
F0
s(I1
(I-1
I0
I-2
tp531
tp532
F0
s(I1
(I3
I0
I3
tp533
tp534
F-4.7161945784554344
s(I1
(I8
I10
I2
tp535
tp536
F0.063394953224615316
s(I0
(I5
I-8
I-1
tp537
tp538
F-2.6256727345731523
s(I1
(I8
I10
I1
tp539
tp540
F0.065529577737628977
s(I1
(I7
I9
I-1
tp541
tp542
F0.16362286726624281
s(I1
(I3
I7
I-1
tp543
tp544
F-6.3999957394686451
s(I1
(I10
I-10
I-1
tp545
tp546
F0
s(I1
(I8
I-6
I4
tp547
tp548
F0
s(I1
(I3
I16
I-2
tp549
tp550
F0
s(I0
(I0
I2
I0
tp551
tp552
F-99.999997758525438
s(I0
(I-1
I13
I3
tp553
tp554
F0
s(I1
(I9
I-14
I0
tp555
tp556
F0
s(I1
(I-1
I6
I1
tp557
tp558
F9.3713154215896132e-06
s(I1
(I7
I-2
I4
tp559
tp560
F0
s(I1
(I9
I-15
I2
tp561
tp562
F0
s(I1
(I0
I15
I2
tp563
tp564
F0
s(I1
(I5
I15
I0
tp565
tp566
F0
s(I1
(I-1
I10
I3
tp567
tp568
F0.00030080250848001349
s(I0
(I10
I12
I3
tp569
tp570
F0
s(I1
(I-1
I8
I-1
tp571
tp572
F1.1285893374195921e-05
s(I0
(I5
I9
I1
tp573
tp574
F-99.748788076122835
s(I0
(I1
I0
I4
tp575
tp576
F0
s(I0
(I6
I-7
I0
tp577
tp578
F0.37752651240493179
s(I1
(I1
I-3
I3
tp579
tp580
F-39.99999071031818
s(I1
(I-1
I0
I2
tp581
tp582
F6.6226099172600597e-07
s(I0
(I0
I-4
I1
tp583
tp584
F-99.999994720688179
s(I1
(I10
I-3
I-2
tp585
tp586
F0
s(I0
(I7
I16
I2
tp587
tp588
F0
s(I1
(I6
I-4
I-1
tp589
tp590
F0.40615963096556856
s(I1
(I1
I10
I-2
tp591
tp592
F0
s(I0
(I6
I-2
I1
tp593
tp594
F0.37921372696884548
s(I1
(I3
I11
I1
tp595
tp596
F-0.62399747161852748
s(I1
(I1
I2
I-1
tp597
tp598
F40.00215281936088
s(I1
(I-1
I1
I1
tp599
tp600
F0.0014375395995673832
s(I1
(I5
I-9
I-2
tp601
tp602
F0
s(I1
(I3
I-8
I1
tp603
tp604
F-6.4797729981899064
s(I0
(I3
I2
I3
tp605
tp606
F4.351253434126642
s(I0
(I10
I-4
I2
tp607
tp608
F0
s(I0
(I-1
I-15
I3
tp609
tp610
F0
s(I0
(I10
I-12
I0
tp611
tp612
F0
s(I0
(I0
I-4
I-1
tp613
tp614
F-99.999994175898223
s(I1
(I7
I1
I-2
tp615
tp616
F0
s(I1
(I10
I-5
I2
tp617
tp618
F0
s(I0
(I5
I7
I0
tp619
tp620
F-1.0148381280403351
s(I1
(I2
I15
I-1
tp621
tp622
F0
s(I1
(I2
I-11
I-1
tp623
tp624
F-21.339475532739883
s(I0
(I10
I-2
I2
tp625
tp626
F0
s(I1
(I2
I14
I4
tp627
tp628
F0
s(I1
(I9
I-16
I0
tp629
tp630
F0
s(I0
(I-1
I-11
I-1
tp631
tp632
F-38.237430064574646
s(I1
(I4
I16
I3
tp633
tp634
F0
s(I0
(I9
I-4
I2
tp635
tp636
F0.025796945905054137
s(I1
(I-1
I6
I-2
tp637
tp638
F0
s(I0
(I2
I13
I-2
tp639
tp640
F0
s(I1
(I-1
I-1
I-1
tp641
tp642
F-1.2897981027694642e-05
s(I1
(I5
I9
I2
tp643
tp644
F-1.0239393761052966
s(I0
(I1
I-2
I-2
tp645
tp646
F0
s(I1
(I0
I5
I-1
tp647
tp648
F-99.999988657571649
s(I1
(I5
I10
I4
tp649
tp650
F-1.0239666668130476
s(I0
(I-1
I7
I3
tp651
tp652
F-99.999387240958512
s(I1
(I1
I-6
I0
tp653
tp654
F-40.000353917078726
s(I1
g463
tp655
F0
s(I0
(I4
I11
I3
tp656
tp657
F-99.999933297835923
s(I0
(I9
I-16
I4
tp658
tp659
F0
s(I0
(I0
I4
I4
tp660
tp661
F-99.999911564644577
s(I0
(I-1
I13
I-1
tp662
tp663
F0
s(I1
(I5
I8
I-1
tp664
tp665
F-1.0189561480017737
s(I0
(I4
I-16
I-1
tp666
tp667
F0
s(I1
(I5
I-15
I-2
tp668
tp669
F0
s(I1
(I-1
I-4
I3
tp670
tp671
F0
s(I1
(I10
I-8
I4
tp672
tp673
F0
s(I1
(I1
I-5
I-2
tp674
tp675
F0
s(I0
(I1
I-10
I3
tp676
tp677
F0
s(I1
(I0
I3
I4
tp678
tp679
F-99.999992376549542
s(I0
(I2
I4
I0
tp680
tp681
F-15.999997777792538
s(I1
(I3
I-16
I-2
tp682
tp683
F0
s(I1
(I5
I-11
I-2
tp684
tp685
F0
s(I0
(I-1
I-14
I2
tp686
tp687
F0
s(I1
(I10
I0
I2
tp688
tp689
F0
s(I0
(I7
I3
I1
tp690
tp691
F0.1638570720556474
s(I1
(I8
I-2
I2
tp692
tp693
F0.059588312662629157
s(I0
(I-1
I4
I1
tp694
tp695
F1.8198758505442619e-05
s(I1
(I0
I-15
I-1
tp696
tp697
F0
s(I1
(I1
I15
I4
tp698
tp699
F0
s(I0
g581
tp700
F0.0099625690947993274
s(I0
(I1
I5
I0
tp701
tp702
F-39.999997668145319
s(I0
(I1
I9
I1
tp703
tp704
F-42.992475401813849
s(I1
(I7
I16
I4
tp705
tp706
F0
s(I0
(I0
I-14
I-1
tp707
tp708
F0
s(I0
(I0
I14
I-2
tp709
tp710
F0
s(I1
(I8
I-9
I1
tp711
tp712
F-1.9845991673680654
s(I1
(I1
I-6
I-2
tp713
tp714
F0
s(I1
(I5
I10
I1
tp715
tp716
F-1.0239841309951703
s(I1
(I8
I-2
I-1
tp717
tp718
F0.053024337754892778
s(I0
(I1
I-15
I0
tp719
tp720
F0
s(I0
(I9
I-5
I2
tp721
tp722
F0.026067346114866573
s(I0
(I-1
I15
I3
tp723
tp724
F0
s(I0
(I10
I-1
I0
tp725
tp726
F0
s(I1
(I2
I-15
I3
tp727
tp728
F0
s(I0
g521
tp729
F-95.127992280083177
s(I0
(I-1
I11
I-1
tp730
tp731
F0
s(I0
(I1
I-7
I-1
tp732
tp733
F-96.999917448502686
s(I1
(I7
I-1
I-1
tp734
tp735
F0.14534782244374067
s(I1
g701
tp736
F-39.999993558044778
s(I0
(I7
I10
I0
tp737
tp738
F0
s(I1
g709
tp739
F0
s(I1
g609
tp740
F0
s(I1
g447
tp741
F0
s(I1
(I1
I-3
I2
tp742
tp743
F-39.999991179805171
s(I0
(I9
I-1
I1
tp744
tp745
F0.026204468840083754
s(I1
(I1
I-11
I4
tp746
tp747
F0
s(I0
(I7
I13
I0
tp748
tp749
F0
s(I0
(I8
I14
I-1
tp750
tp751
F0
s(I0
(I-1
I-1
I1
tp752
tp753
F5.6900793252809495e-05
s(I1
(I9
I8
I4
tp754
tp755
F0.02621714450328224
s(I0
g13
tp756
F0
s(I0
(I-1
I7
I1
tp757
tp758
F-0.00030480487300750189
s(I0
(I9
I-2
I2
tp759
tp760
F0.026216599845700683
s(I0
(I0
I10
I1
tp761
tp762
F-99.999989265862908
s(I0
(I6
I-7
I-2
tp763
tp764
F0
s(I1
(I8
I13
I1
tp765
tp766
F0
s(I0
(I6
I5
I3
tp767
tp768
F-99.763356273332519
s(I0
(I-1
I-1
I4
tp769
tp770
F0
s(I1
(I1
I5
I3
tp771
tp772
F-39.999989518087858
s(I1
(I0
I-15
I0
tp773
tp774
F0
s(I0
(I1
I-15
I2
tp775
tp776
F0
s(I0
(I0
I4
I-1
tp777
tp778
F-99.999998535818818
s(I0
(I1
I7
I3
tp779
tp780
F-40.142801327612126
s(I0
(I10
I4
I0
tp781
tp782
F0
s(I0
(I9
I10
I2
tp783
tp784
F-99.999989632036858
s(I0
(I-1
I2
I0
tp785
tp786
F3.4278774682777778e-05
s(I0
(I7
I3
I4
tp787
tp788
F-99.99970184813651
s(I0
(I0
I-6
I-2
tp789
tp790
F0
s(I1
(I-1
I0
I0
tp791
tp792
F4.4871148862015987e-06
s(I1
(I8
I-5
I1
tp793
tp794
F-0.076071205016056853
s(I1
(I5
I-8
I-2
tp795
tp796
F0
s(I1
(I9
I-3
I2
tp797
tp798
F0.025651630232139209
s(I0
(I7
I-15
I0
tp799
tp800
F0
s(I0
(I3
I15
I3
tp801
tp802
F0
s(I1
(I4
I-10
I2
tp803
tp804
F0
s(I0
(I-1
I9
I0
tp805
tp806
F6.0812127780762981e-06
s(I0
(I2
I3
I1
tp807
tp808
F-15.99998894733905
s(I0
(I4
I-14
I2
tp809
tp810
F0
s(I1
(I1
I10
I3
tp811
tp812
F-39.999985629811867
s(I1
(I0
I-3
I0
tp813
tp814
F-99.999989347377308
s(I0
(I1
I-2
I4
tp815
tp816
F0
s(I0
g617
tp817
F0
s(I1
(I6
I-3
I-1
tp818
tp819
F-0.27435797350120755
s(I0
(I-1
I14
I2
tp820
tp821
F0
s(I0
(I-1
I8
I-2
tp822
tp823
F0
s(I0
(I0
I-9
I0
tp824
tp825
F-99.999958344916053
s(I0
(I-1
I-13
I0
tp826
tp827
F0
s(I0
(I-1
I15
I0
tp828
tp829
F0
s(I1
(I10
I-15
I-2
tp830
tp831
F0
s(I1
(I7
I-8
I4
tp832
tp833
F0
s(I1
(I-1
I-5
I3
tp834
tp835
F0
s(I1
(I4
I-10
I-2
tp836
tp837
F0
s(I1
g660
tp838
F-99.999994980267971
s(I1
(I7
I-12
I1
tp839
tp840
F-99.999992501563725
s(I0
(I0
I-11
I3
tp841
tp842
F0
s(I0
g81
tp843
F-99.999889583505009
s(I0
(I0
I0
I0
tp844
tp845
F100.01046682150998
s(I0
(I0
I-8
I-1
tp846
tp847
F-99.999998644584849
s(I1
(I10
I-14
I-2
tp848
tp849
F0
s(I1
(I8
I-15
I0
tp850
tp851
F0
s(I1
(I4
I0
I4
tp852
tp853
F0
s(I1
(I-1
I8
I4
tp854
tp855
F1.5520085549628607e-05
s(I1
(I1
I-7
I2
tp856
tp857
F-39.999971404344919
s(I1
(I4
I8
I2
tp858
tp859
F-2.5589769138985123
s(I0
(I10
I5
I0
tp860
tp861
F0
s(I0
(I10
I-1
I3
tp862
tp863
F0
s(I0
(I3
I14
I-1
tp864
tp865
F0
s(I0
(I0
I-1
I-2
tp866
tp867
F0
s(I1
(I5
I-2
I0
tp868
tp869
F-1.0111596769465947
s(I1
(I0
I12
I3
tp870
tp871
F0
s(I1
(I7
I-2
I0
tp872
tp873
F-0.096177279822500933
s(I1
(I4
I10
I-2
tp874
tp875
F0
s(I1
g815
tp876
F0
s(I1
(I1
I-14
I1
tp877
tp878
F0
s(I0
(I6
I-10
I-1
tp879
tp880
F-36.175489702017835
s(I1
g53
tp881
F-0.40958943015517879
s(I1
g680
tp882
F-15.923587957281226
s(I0
(I1
I2
I1
tp883
tp884
F-39.999967956972718
s(I1
(I-1
I-4
I2
tp885
tp886
F7.1381247543079296e-06
s(I0
(I0
I-2
I4
tp887
tp888
F0
s(I0
(I-1
I2
I2
tp889
tp890
F-0.011855081119846206
s(I1
(I-1
I-13
I3
tp891
tp892
F0
s(I0
(I3
I13
I2
tp893
tp894
F0
s(I0
g304
tp895
F0
s(I1
(I-1
I9
I2
tp896
tp897
F9.008557998223165e-05
s(I0
(I6
I16
I0
tp898
tp899
F0
s(I1
(I1
I1
I1
tp900
tp901
F40.004133151334727
s(I0
g623
tp902
F-38.854277566813806
s(I1
(I3
I-5
I2
tp903
tp904
F-6.4001816828935745
s(I1
g356
tp905
F0
s(I1
(I5
I15
I1
tp906
tp907
F0
s(I0
(I0
I16
I0
tp908
tp909
F0
s(I1
(I1
I13
I1
tp910
tp911
F0
s(I0
(I10
I-3
I3
tp912
tp913
F0
s(I1
(I6
I13
I1
tp914
tp915
F0
s(I1
(I10
I-2
I1
tp916
tp917
F0
s(I0
g531
tp918
F0
s(I1
(I7
I14
I4
tp919
tp920
F0
s(I1
(I3
I-7
I4
tp921
tp922
F0
s(I1
(I2
I-8
I1
tp923
tp924
F-16.000130427921249
s(I1
(I0
I4
I1
tp925
tp926
F-99.999991408063735
s(I1
(I9
I-13
I1
tp927
tp928
F0
s(I0
(I0
I13
I-1
tp929
tp930
F0
s(I1
(I5
I-2
I-2
tp931
tp932
F0
s(I0
(I2
I12
I0
tp933
tp934
F0
s(I1
(I5
I-14
I4
tp935
tp936
F0
s(I0
(I10
I-10
I0
tp937
tp938
F0
s(I1
(I10
I-8
I-2
tp939
tp940
F0
s(I1
(I2
I-2
I4
tp941
tp942
F0
s(I1
(I-1
I1
I-1
tp943
tp944
F2.1701271949068084e-05
s(I1
(I7
I4
I-2
tp945
tp946
F0
s(I1
(I8
I-8
I1
tp947
tp948
F0.049458304925137433
s(I0
(I3
I13
I0
tp949
tp950
F0
s(I1
(I7
I13
I2
tp951
tp952
F0
s(I0
(I9
I16
I1
tp953
tp954
F0
s(I0
g149
tp955
F0
s(I0
(I1
I-2
I3
tp956
tp957
F39.804659321804877
s(I0
(I-1
I-6
I0
tp958
tp959
F1.5344696513309049e-05
s(I0
(I4
I10
I4
tp960
tp961
F-99.996215172756521
s(I0
(I0
I9
I0
tp962
tp963
F-99.999988560824136
s(I1
(I7
I-5
I2
tp964
tp965
F-0.10645810892172286
s(I1
(I10
I1
I4
tp966
tp967
F0
s(I0
(I0
I2
I3
tp968
tp969
F-99.999999018049408
s(I1
g167
tp970
F0
s(I0
(I2
I-3
I2
tp971
tp972
F-14.266706153355303
s(I1
(I0
I2
I-1
tp973
tp974
F-90.49949289392066
s(I1
(I6
I-5
I-1
tp975
tp976
F-0.45624901707800319
s(I1
(I0
I3
I0
tp977
tp978
F-99.999994896160615
s(I0
(I8
I-2
I1
tp979
tp980
F0.065535191742620069
s(I0
g647
tp981
F-99.999995527876749
s(I1
(I1
I-14
I4
tp982
tp983
F0
s(I0
(I6
I2
I2
tp984
tp985
F0.40961267203834012
s(I1
(I9
I16
I-1
tp986
tp987
F0
s(I1
(I9
I15
I1
tp988
tp989
F0
s(I0
(I3
I5
I0
tp990
tp991
F-6.3721355394784949
s(I0
(I8
I-2
I3
tp992
tp993
F0.050405304657642737
s(I1
(I3
I9
I-2
tp994
tp995
F0
s(I0
(I7
I16
I3
tp996
tp997
F0
s(I1
(I6
I14
I0
tp998
tp999
F0
s(I0
(I-1
I0
I4
tp1000
tp1001
F0
s(I0
g39
tp1002
F0
s(I0
g986
tp1003
F0
s(I1
(I1
I4
I4
tp1004
tp1005
F-39.999450679622953
s(I0
(I3
I-7
I2
tp1006
tp1007
F-4.6047719604830366
s(I1
(I9
I-14
I-2
tp1008
tp1009
F0
s(I1
(I6
I-6
I-1
tp1010
tp1011
F-0.65110425271053085
s(I1
(I-1
I10
I2
tp1012
tp1013
F1.4780230714570574e-05
s(I1
(I5
I6
I0
tp1014
tp1015
F1.0241072206799264
s(I1
g17
tp1016
F0
s(I1
(I-1
I7
I2
tp1017
tp1018
F1.2553097879005383e-05
s(I1
(I7
I-5
I-2
tp1019
tp1020
F0
s(I1
(I5
I-5
I-2
tp1021
tp1022
F0
s(I0
(I8
I-5
I0
tp1023
tp1024
F0.065529757336115407
s(I0
(I-1
I4
I-2
tp1025
tp1026
F0
s(I1
(I5
I10
I3
tp1027
tp1028
F-1.0239855973251406
s(I1
(I2
I-12
I0
tp1029
tp1030
F-99.999962170383654
s(I0
g316
tp1031
F-99.99990075124191
s(I1
(I5
I11
I3
tp1032
tp1033
F-1.0239948673220931
s(I0
(I-1
I-3
I-1
tp1034
tp1035
F-0.00076602931400036585
s(I1
(I5
I14
I3
tp1036
tp1037
F0
s(I0
(I8
I-16
I0
tp1038
tp1039
F0
s(I0
(I1
I2
I0
tp1040
tp1041
F-39.990475118981763
s(I0
g250
tp1042
F0
s(I1
g1006
tp1043
F-6.400035091353665
s(I1
(I2
I-2
I3
tp1044
tp1045
F-15.999756517938641
s(I0
(I6
I16
I1
tp1046
tp1047
F0
s(I1
(I6
I-2
I-1
tp1048
tp1049
F0.3695876430763535
s(I0
(I2
I11
I-1
tp1050
tp1051
F0
s(I0
(I0
I-15
I1
tp1052
tp1053
F0
s(I0
(I9
I-3
I3
tp1054
tp1055
F0.026110369130854606
s(I0
(I9
I-4
I3
tp1056
tp1057
F0
s(I1
(I2
I15
I2
tp1058
tp1059
F0
s(I0
(I9
I11
I3
tp1060
tp1061
F-99.999956693231198
s(I1
(I5
I2
I4
tp1062
tp1063
F1.0240650491582546
s(I1
g99
tp1064
F0.5622412591099768
s(I0
g1032
tp1065
F-99.998577238820204
s(I1
(I6
I-3
I2
tp1066
tp1067
F0.33340709562507082
s(I1
(I6
I10
I-2
tp1068
tp1069
F0
s(I1
(I7
I6
I3
tp1070
tp1071
F0.16385716941499642
s(I1
(I6
I-2
I3
tp1072
tp1073
F0.37030860000710747
s(I1
(I5
I-1
I-1
tp1074
tp1075
F0.76306720173621612
s(I1
(I6
I7
I4
tp1076
tp1077
F0.409642692615035
s(I1
g1056
tp1078
F0
s(I1
(I10
I4
I3
tp1079
tp1080
F0
s(I1
(I4
I-9
I0
tp1081
tp1082
F-2.5961078574738212
s(I0
(I6
I13
I-1
tp1083
tp1084
F0
s(I1
(I2
I15
I-2
tp1085
tp1086
F0
s(I1
(I0
I16
I2
tp1087
tp1088
F0
s(I1
(I7
I15
I2
tp1089
tp1090
F0
s(I1
(I0
I14
I3
tp1091
tp1092
F0
s(I0
(I10
I9
I-2
tp1093
tp1094
F0
s(I0
g925
tp1095
F-99.999995254438701
s(I1
(I-1
I-11
I4
tp1096
tp1097
F0
s(I0
(I10
I5
I4
tp1098
tp1099
F0
s(I0
g147
tp1100
F0
s(I0
(I0
I13
I3
tp1101
tp1102
F0
s(I1
(I0
I15
I3
tp1103
tp1104
F0
s(I1
(I8
I-10
I2
tp1105
tp1106
F0
s(I1
(I10
I-3
I-1
tp1107
tp1108
F0
s(I1
(I8
I-14
I2
tp1109
tp1110
F0
s(I1
(I2
I3
I2
tp1111
tp1112
F16.001655677412273
s(I1
(I10
I-13
I3
tp1113
tp1114
F0
s(I1
(I4
I-11
I-1
tp1115
tp1116
F-99.992649973643879
s(I0
(I0
I-15
I3
tp1117
tp1118
F0
s(I1
(I5
I10
I-1
tp1119
tp1120
F-1.0239970155438911
s(I1
(I2
I-1
I-1
tp1121
tp1122
F13.095436969397628
s(I1
(I2
I-16
I0
tp1123
tp1124
F0
s(I0
(I1
I6
I3
tp1125
tp1126
F-97.149627823855667
s(I0
(I8
I-2
I-2
tp1127
tp1128
F0
s(I1
(I1
I6
I1
tp1129
tp1130
F-39.999460341387021
s(I1
(I9
I11
I-1
tp1131
tp1132
F0
s(I0
(I-1
I-7
I0
tp1133
tp1134
F8.744762656192527e-07
s(I1
(I0
I-14
I3
tp1135
tp1136
F0
s(I1
(I4
I-1
I0
tp1137
tp1138
F1.8657248198767156
s(I1
g369
tp1139
F6.4006701065776417
s(I1
(I9
I-1
I3
tp1140
tp1141
F0.025874560334406146
s(I1
(I2
I13
I0
tp1142
tp1143
F0
s(I1
(I1
I-1
I3
tp1144
tp1145
F39.621857895501094
s(I1
(I7
I-11
I4
tp1146
tp1147
F0
s(I0
(I9
I-4
I0
tp1148
tp1149
F0.025858978625095508
s(I0
(I1
I-15
I3
tp1150
tp1151
F0
s(I1
(I4
I-2
I4
tp1152
tp1153
F0
s(I1
(I3
I6
I4
tp1154
tp1155
F-6.3984516789300692
s(I1
(I-1
I-4
I4
tp1156
tp1157
F0
s(I0
(I0
I14
I2
tp1158
tp1159
F0
s(I1
(I3
I-11
I4
tp1160
tp1161
F0
s(I1
(I9
I-9
I2
tp1162
tp1163
F0
s(I0
(I1
I-11
I-2
tp1164
tp1165
F0
s(I0
(I9
I0
I4
tp1166
tp1167
F0
s(I1
(I10
I16
I-2
tp1168
tp1169
F0
s(I0
(I6
I-5
I-2
tp1170
tp1171
F0
s(I1
(I7
I2
I3
tp1172
tp1173
F0.16378762582874268
s(I0
(I5
I16
I4
tp1174
tp1175
F0
s(I1
(I8
I4
I-1
tp1176
tp1177
F0.06529910365306188
s(I0
(I5
I7
I-2
tp1178
tp1179
F0
s(I1
(I3
I1
I2
tp1180
tp1181
F6.3689840015027537
s(I0
(I0
I-16
I-2
tp1182
tp1183
F0
s(I0
g501
tp1184
F-39.999450892347696
s(I0
(I0
I-11
I-1
tp1185
tp1186
F-99.999899418692465
s(I0
(I7
I1
I3
tp1187
tp1188
F-0.074032498637023991
s(I1
(I-1
I1
I2
tp1189
tp1190
F-4.1147022983506914e-06
s(I1
(I-1
I3
I1
tp1191
tp1192
F5.1589522109012407e-05
s(I1
(I8
I-5
I2
tp1193
tp1194
F-0.03630730686489201
s(I0
(I6
I-14
I2
tp1195
tp1196
F0
s(I1
(I1
I9
I0
tp1197
tp1198
F-39.999969772186624
s(I1
(I10
I8
I-2
tp1199
tp1200
F0
s(I0
(I9
I-10
I4
tp1201
tp1202
F0
s(I1
(I0
I11
I-1
tp1203
tp1204
F0
s(I0
(I7
I-10
I1
tp1205
tp1206
F0.16243818513015607
s(I0
(I-1
I8
I3
tp1207
tp1208
F-99.999939382415121
s(I1
(I-1
I0
I1
tp1209
tp1210
F5.9702394110928365e-06
s(I0
(I9
I-2
I-1
tp1211
tp1212
F0.026079773763624546
s(I0
(I1
I-2
I-1
tp1213
tp1214
F-32.580036834253079
s(I0
(I2
I-6
I-2
tp1215
tp1216
F0
s(I1
(I0
I0
I-2
tp1217
tp1218
F0
s(I1
g270
tp1219
F0
s(I1
(I1
I15
I3
tp1220
tp1221
F0
s(I0
g943
tp1222
F0.0014390081324972897
s(I0
(I2
I11
I3
tp1223
tp1224
F-99.999967990215751
s(I0
(I10
I-12
I-1
tp1225
tp1226
F0
s(I0
(I6
I9
I1
tp1227
tp1228
F-0.40962432607169397
s(I0
(I4
I15
I3
tp1229
tp1230
F0
s(I0
(I4
I-7
I-2
tp1231
tp1232
F0
s(I0
(I1
I16
I1
tp1233
tp1234
F0
s(I1
g280
tp1235
F0
s(I0
(I5
I-5
I-1
tp1236
tp1237
F-1.009686190219711
s(I1
(I4
I-12
I4
tp1238
tp1239
F0
s(I1
(I10
I-13
I4
tp1240
tp1241
F0
s(I1
(I9
I3
I3
tp1242
tp1243
F0.026216358855269916
s(I0
(I8
I6
I-1
tp1244
tp1245
F0.06554283451336132
s(I0
(I6
I11
I1
tp1246
tp1247
F0
s(I0
g1209
tp1248
F3.1821613612821814e-05
s(I1
(I0
I10
I4
tp1249
tp1250
F-99.999983470013277
s(I1
(I7
I5
I-2
tp1251
tp1252
F0
s(I0
(I9
I-7
I0
tp1253
tp1254
F0.019367711628298114
s(I0
(I10
I2
I0
tp1255
tp1256
F0
s(I0
(I6
I6
I3
tp1257
tp1258
F-99.76343347224558
s(I1
(I2
I9
I-1
tp1259
tp1260
F-15.999995377896701
s(I1
(I9
I13
I2
tp1261
tp1262
F0
s(I1
(I10
I14
I3
tp1263
tp1264
F0
s(I1
(I4
I1
I-1
tp1265
tp1266
F2.3369757705909193
s(I0
(I7
I-11
I2
tp1267
tp1268
F0
s(I1
(I9
I-12
I2
tp1269
tp1270
F0
s(I0
(I8
I-5
I4
tp1271
tp1272
F0
s(I1
g328
tp1273
F-99.999941009988532
s(I0
(I7
I0
I1
tp1274
tp1275
F0.1637456574005561
s(I0
(I10
I-4
I-1
tp1276
tp1277
F0
s(I1
(I7
I10
I-2
tp1278
tp1279
F0
s(I1
(I6
I-3
I0
tp1280
tp1281
F0.35533102642759129
s(I1
(I2
I7
I1
tp1282
tp1283
F-15.999995329998107
s(I0
(I1
I-9
I1
tp1284
tp1285
F-39.999992969423296
s(I0
(I3
I10
I3
tp1286
tp1287
F-99.999984569386839
s(I1
g1267
tp1288
F0
s(I0
(I4
I15
I1
tp1289
tp1290
F0
s(I0
(I8
I-4
I-2
tp1291
tp1292
F0
s(I1
(I4
I9
I0
tp1293
tp1294
F-2.5599209859957894
s(I0
(I-1
I-8
I1
tp1295
tp1296
F7.2109037393212587e-05
s(I1
(I6
I-15
I0
tp1297
tp1298
F0
s(I1
(I5
I15
I-2
tp1299
tp1300
F0
s(I0
(I0
I-4
I4
tp1301
tp1302
F0
s(I1
(I1
I14
I0
tp1303
tp1304
F0
s(I0
g367
tp1305
F0
s(I1
(I6
I12
I2
tp1306
tp1307
F0
s(I0
(I-1
I15
I-2
tp1308
tp1309
F0
s(I1
(I3
I5
I-2
tp1310
tp1311
F0
s(I0
(I-1
I-7
I2
tp1312
tp1313
F0.00026649885515622382
s(I1
(I5
I15
I2
tp1314
tp1315
F0
s(I1
g1286
tp1316
F-6.3999667551330299
s(I0
(I10
I16
I3
tp1317
tp1318
F0
s(I1
(I0
I-3
I-2
tp1319
tp1320
F0
s(I0
(I6
I16
I3
tp1321
tp1322
F0
s(I0
(I-1
I-11
I1
tp1323
tp1324
F0.00030424759746843167
s(I1
(I7
I3
I3
tp1325
tp1326
F0.16369997010948117
s(I1
(I7
I-15
I-2
tp1327
tp1328
F0
s(I0
g1135
tp1329
F0
s(I0
(I1
I-16
I-1
tp1330
tp1331
F0
s(I1
(I5
I-13
I3
tp1332
tp1333
F0
s(I0
(I7
I10
I3
tp1334
tp1335
F-99.99998881871511
s(I1
(I5
I-10
I3
tp1336
tp1337
F0
s(I0
(I2
I-13
I2
tp1338
tp1339
F0
s(I1
g587
tp1340
F0
s(I1
g358
tp1341
F0
s(I1
(I5
I-9
I3
tp1342
tp1343
F0
s(I1
(I4
I-11
I0
tp1344
tp1345
F-99.76852935755872
s(I0
(I4
I12
I2
tp1346
tp1347
F0
s(I1
(I7
I7
I2
tp1348
tp1349
F0.16385716025810107
s(I0
(I0
I-16
I4
tp1350
tp1351
F0
s(I0
(I3
I10
I1
tp1352
tp1353
F-99.777026174941682
s(I0
(I0
I1
I2
tp1354
tp1355
F-99.999769281079494
s(I1
(I8
I-7
I4
tp1356
tp1357
F0
s(I0
(I7
I-8
I0
tp1358
tp1359
F0.16339789214878558
s(I0
g1048
tp1360
F0.31815181448297497
s(I1
(I5
I-4
I4
tp1361
tp1362
F0
s(I0
g1342
tp1363
F0
s(I1
(I1
I8
I-1
tp1364
tp1365
F-39.999996219064776
s(I0
(I-1
I-6
I3
tp1366
tp1367
F0
s(I0
(I6
I-14
I3
tp1368
tp1369
F0
s(I0
(I10
I-6
I3
tp1370
tp1371
F0
s(I1
(I10
I11
I-1
tp1372
tp1373
F0
s(I0
(I6
I-12
I2
tp1374
tp1375
F0
s(I1
(I9
I-8
I4
tp1376
tp1377
F0
s(I0
(I-1
I-10
I0
tp1378
tp1379
F0.0014336662794645592
s(I1
(I6
I6
I4
tp1380
tp1381
F0.4096427660480238
s(I0
(I0
I13
I0
tp1382
tp1383
F0
s(I0
(I9
I-8
I0
tp1384
tp1385
F0.02066857563724589
s(I1
(I-1
I-15
I4
tp1386
tp1387
F0
s(I1
(I-1
I4
I-1
tp1388
tp1389
F8.1989274698714517e-05
s(I0
g621
tp1390
F0
s(I1
(I10
I9
I2
tp1391
tp1392
F0
s(I1
(I-1
I13
I2
tp1393
tp1394
F0
s(I1
(I9
I-11
I2
tp1395
tp1396
F0
s(I1
(I9
I-10
I-2
tp1397
tp1398
F0
s(I1
(I5
I11
I4
tp1399
tp1400
F-1.0215481024292616
s(I1
(I9
I10
I-1
tp1401
tp1402
F0.026217141139116211
s(I1
(I3
I14
I3
tp1403
tp1404
F0
s(I1
(I-1
I6
I0
tp1405
tp1406
F2.92951755647437e-06
s(I0
(I5
I-14
I1
tp1407
tp1408
F0
s(I0
(I0
I6
I-2
tp1409
tp1410
F0
s(I0
(I3
I-12
I-2
tp1411
tp1412
F0
s(I0
(I8
I-3
I2
tp1413
tp1414
F0.065540024498514232
s(I0
(I10
I1
I2
tp1415
tp1416
F0
s(I1
g1227
tp1417
F0.25781894329059468
s(I0
(I8
I-3
I0
tp1418
tp1419
F0.065534398695610674
s(I0
(I9
I-9
I-2
tp1420
tp1421
F0
s(I1
(I10
I6
I4
tp1422
tp1423
F0
s(I0
(I6
I-6
I3
tp1424
tp1425
F0
s(I0
(I3
I13
I3
tp1426
tp1427
F0
s(I0
(I0
I2
I4
tp1428
tp1429
F-99.999992304926764
s(I0
(I3
I4
I1
tp1430
tp1431
F-6.3984817968783458
s(I0
(I4
I-2
I2
tp1432
tp1433
F2.5600551417114974
s(I1
(I10
I-5
I0
tp1434
tp1435
F0
s(I0
(I8
I2
I-1
tp1436
tp1437
F0.065540904136047809
s(I0
(I1
I-10
I-2
tp1438
tp1439
F0
s(I0
(I1
I-7
I3
tp1440
tp1441
F0
s(I1
(I1
I14
I2
tp1442
tp1443
F0
s(I0
(I10
I10
I-1
tp1444
tp1445
F0
s(I1
(I3
I-9
I-1
tp1446
tp1447
F-97.134963766134319
s(I1
g757
tp1448
F3.7871252500744309e-06
s(I1
(I7
I-3
I-1
tp1449
tp1450
F-0.11140621197545494
s(I1
(I8
I-1
I-2
tp1451
tp1452
F0
s(I0
(I5
I1
I1
tp1453
tp1454
F1.0240960512675703
s(I0
(I4
I9
I1
tp1455
tp1456
F-7.4313537918055346
s(I1
(I3
I-10
I3
tp1457
tp1458
F0
s(I1
(I0
I-13
I4
tp1459
tp1460
F0
s(I0
(I4
I-2
I-2
tp1461
tp1462
F0
s(I1
g822
tp1463
F0
s(I0
(I9
I4
I2
tp1464
tp1465
F-4.7250243582171123
s(I1
(I5
I3
I3
tp1466
tp1467
F1.0236851742213677
s(I1
g625
tp1468
F0
s(I1
(I2
I1
I4
tp1469
tp1470
F16.001675207432783
s(I0
(I5
I12
I2
tp1471
tp1472
F0
s(I1
(I6
I-4
I1
tp1473
tp1474
F-1.5221132500105554
s(I1
(I-1
I7
I-1
tp1475
tp1476
F3.7998828935035668e-05
s(I1
(I5
I8
I-2
tp1477
tp1478
F0
s(I1
(I-1
I-15
I2
tp1479
tp1480
F0
s(I1
(I5
I7
I3
tp1481
tp1482
F-0.738245981728617
s(I1
(I3
I-3
I-1
tp1483
tp1484
F-6.3999683327807517
s(I1
(I7
I7
I0
tp1485
tp1486
F0.16385715745769905
s(I1
(I3
I2
I2
tp1487
tp1488
F6.400665700433521
s(I0
(I3
I-15
I3
tp1489
tp1490
F0
s(I0
(I4
I-16
I0
tp1491
tp1492
F0
s(I0
(I8
I-5
I3
tp1493
tp1494
F0
s(I1
(I5
I-8
I0
tp1495
tp1496
F-95.289866080118003
s(I1
g1301
tp1497
F0
s(I0
(I8
I-4
I3
tp1498
tp1499
F0
s(I1
(I0
I10
I2
tp1500
tp1501
F-99.999451842617319
s(I1
(I0
I-12
I2
tp1502
tp1503
F0
s(I0
g797
tp1504
F0.026183458002486944
s(I0
(I7
I0
I4
tp1505
tp1506
F0
s(I0
(I2
I2
I2
tp1507
tp1508
F-19.989993933357908
s(I1
(I7
I-11
I1
tp1509
tp1510
F-40.869760959123539
s(I1
(I6
I2
I3
tp1511
tp1512
F0.40445344232940156
s(I0
(I-1
I-16
I-2
tp1513
tp1514
F0
s(I1
(I2
I7
I0
tp1515
tp1516
F-15.999994784718359
s(I1
(I4
I15
I2
tp1517
tp1518
F0
s(I0
g891
tp1519
F0
s(I0
g1481
tp1520
F-99.999797009116307
s(I0
(I3
I-3
I0
tp1521
tp1522
F-4.5484727913747456
s(I0
g1325
tp1523
F-94.992396839967341
s(I0
(I3
I12
I1
tp1524
tp1525
F0
s(I0
(I0
I11
I4
tp1526
tp1527
F-99.998565911965201
s(I1
(I0
I14
I0
tp1528
tp1529
F0
s(I0
(I3
I15
I-2
tp1530
tp1531
F0
s(I1
(I9
I11
I1
tp1532
tp1533
F0.024687357816473087
s(I1
(I8
I4
I0
tp1534
tp1535
F0.065524199643212017
s(I0
g601
tp1536
F0
s(I0
(I3
I-8
I-2
tp1537
tp1538
F0
s(I1
(I8
I-15
I3
tp1539
tp1540
F0
s(I0
(I9
I4
I0
tp1541
tp1542
F0.026217127739384415
s(I1
(I2
I12
I3
tp1543
tp1544
F0
s(I1
(I-1
I16
I4
tp1545
tp1546
F0
s(I1
(I10
I-14
I4
tp1547
tp1548
F0
s(I0
(I9
I-11
I0
tp1549
tp1550
F0.025701817642201235
s(I0
(I8
I-16
I-2
tp1551
tp1552
F0
s(I0
g33
tp1553
F0
s(I0
g1511
tp1554
F-95.217884984704227
s(I0
(I1
I9
I3
tp1555
tp1556
F-99.999998687676452
s(I0
(I8
I16
I4
tp1557
tp1558
F0
s(I0
(I10
I16
I4
tp1559
tp1560
F0
s(I1
(I0
I-15
I2
tp1561
tp1562
F0
s(I0
(I4
I-12
I3
tp1563
tp1564
F0
s(I1
(I5
I-10
I4
tp1565
tp1566
F0
s(I0
g55
tp1567
F0
s(I0
(I5
I2
I1
tp1568
tp1569
F-94.948757759787199
s(I0
g793
tp1570
F0.060257821843220899
s(I0
(I-1
I-9
I-1
tp1571
tp1572
F-0.019113924075673139
s(I0
(I9
I-5
I0
tp1573
tp1574
F0.026194543173839846
s(I1
(I10
I-8
I0
tp1575
tp1576
F0
s(I1
g67
tp1577
F0.026190327945067083
s(I0
(I2
I4
I3
tp1578
tp1579
F-96.008551277028346
s(I1
g801
tp1580
F0
s(I1
(I6
I10
I1
tp1581
tp1582
F-0.37765751321433527
s(I1
(I9
I-16
I3
tp1583
tp1584
F0
s(I1
(I7
I2
I4
tp1585
tp1586
F0.16367571459115476
s(I0
(I3
I6
I3
tp1587
tp1588
F-10.846572999219333
s(I0
g472
tp1589
F2.5583283638653187
s(I1
(I8
I11
I-1
tp1590
tp1591
F0
s(I0
(I6
I7
I1
tp1592
tp1593
F-5.135437666971626
s(I0
g1089
tp1594
F0
s(I0
(I5
I9
I-2
tp1595
tp1596
F0
s(I0
(I8
I-12
I0
tp1597
tp1598
F0.065531863428087242
s(I0
g668
tp1599
F0
s(I1
(I7
I-1
I0
tp1600
tp1601
F0.15101357275891611
s(I1
(I7
I6
I0
tp1602
tp1603
F0.16385715518130528
s(I0
(I8
I-3
I1
tp1604
tp1605
F0.065451214521725365
s(I1
(I9
I-9
I3
tp1606
tp1607
F0
s(I1
g887
tp1608
F0
s(I0
(I1
I-8
I-2
tp1609
tp1610
F0
s(I0
(I8
I10
I0
tp1611
tp1612
F0.048801462351623089
s(I0
(I3
I-4
I-2
tp1613
tp1614
F0
s(I0
(I10
I-16
I0
tp1615
tp1616
F0
s(I1
(I1
I16
I-1
tp1617
tp1618
F0
s(I0
(I8
I0
I4
tp1619
tp1620
F0
s(I0
(I5
I15
I3
tp1621
tp1622
F0
s(I1
g593
tp1623
F0.34267505657125436
s(I0
(I7
I1
I2
tp1624
tp1625
F0.16324551750945884
s(I0
(I0
I10
I3
tp1626
tp1627
F-99.999993307472153
s(I1
(I6
I4
I-2
tp1628
tp1629
F0
s(I0
(I7
I6
I2
tp1630
tp1631
F-0.14788365346724575
s(I1
(I2
I10
I2
tp1632
tp1633
F-15.999918062108414
s(I0
g125
tp1634
F-0.29337836962152897
s(I1
(I8
I-6
I1
tp1635
tp1636
F-0.1012560375115379
s(I1
(I10
I11
I3
tp1637
tp1638
F0
s(I1
(I9
I-1
I0
tp1639
tp1640
F0.026071573689855333
s(I0
(I4
I12
I0
tp1641
tp1642
F0
s(I1
(I8
I-10
I1
tp1643
tp1644
F-6.2864550188482369
s(I0
(I0
I-2
I3
tp1645
tp1646
F100.01046739509361
s(I0
(I9
I12
I1
tp1647
tp1648
F0
s(I0
g1008
tp1649
F0
s(I1
g85
tp1650
F0
s(I1
(I5
I-5
I1
tp1651
tp1652
F-1.0161008890285688
s(I1
g666
tp1653
F0
s(I0
(I1
I1
I3
tp1654
tp1655
F-97.000356012771846
s(I1
(I1
I-10
I-1
tp1656
tp1657
F-97.149632265490808
s(I1
g703
tp1658
F-39.9999811544388
s(I1
(I10
I2
I2
tp1659
tp1660
F0
s(I0
(I-1
I-5
I4
tp1661
tp1662
F0
s(I0
(I10
I-3
I4
tp1663
tp1664
F0
s(I1
(I4
I4
I-1
tp1665
tp1666
F2.5602655949823516
s(I0
g715
tp1667
F-1.1616480139139087
s(I0
(I6
I8
I2
tp1668
tp1669
F-95.269441557907172
s(I0
(I6
I-14
I1
tp1670
tp1671
F0
s(I0
(I5
I14
I4
tp1672
tp1673
F0
s(I1
(I-1
I-14
I-1
tp1674
tp1675
F0
s(I1
g236
tp1676
F0
s(I1
(I8
I-13
I-2
tp1677
tp1678
F0
s(I1
(I1
I-12
I-2
tp1679
tp1680
F0
s(I1
g737
tp1681
F0.11732790222082848
s(I1
(I5
I-3
I2
tp1682
tp1683
F-0.74912214336145722
s(I1
(I2
I9
I-2
tp1684
tp1685
F0
s(I0
(I1
I6
I0
tp1686
tp1687
F-39.999977962349185
s(I0
(I3
I6
I0
tp1688
tp1689
F-6.3999906512751679
s(I1
(I7
I-2
I1
tp1690
tp1691
F0.10793845341026445
s(I0
(I6
I3
I-2
tp1692
tp1693
F0
s(I0
g1017
tp1694
F-0.010348262547549003
s(I1
g176
tp1695
F-6.3985949297708995
s(I1
(I4
I13
I4
tp1696
tp1697
F0
s(I1
(I7
I-7
I2
tp1698
tp1699
F0.068881391812035953
s(I0
g232
tp1700
F0
s(I0
g83
tp1701
F0
s(I0
g818
tp1702
F-0.30206768771838716
s(I0
(I1
I0
I0
tp1703
tp1704
F40.004194378411512
s(I0
(I5
I0
I3
tp1705
tp1706
F-99.748036697257277
s(I1
(I5
I3
I2
tp1707
tp1708
F1.0195300193299752
s(I0
g1509
tp1709
F0.16383652698949497
s(I1
(I7
I-6
I3
tp1710
tp1711
F0
s(I0
(I3
I8
I0
tp1712
tp1713
F-6.3999939555757477
s(I1
(I10
I-12
I2
tp1714
tp1715
F0
s(I0
(I-1
I5
I-2
tp1716
tp1717
F0
s(I1
(I10
I-11
I4
tp1718
tp1719
F0
s(I1
g645
tp1720
F0
s(I1
(I9
I-7
I-1
tp1721
tp1722
F-95.001084358307992
s(I1
(I2
I-12
I-2
tp1723
tp1724
F0
s(I1
(I5
I-2
I4
tp1725
tp1726
F0
s(I0
(I3
I0
I-2
tp1727
tp1728
F0
s(I1
(I8
I10
I-1
tp1729
tp1730
F0.064416930383498022
s(I0
(I7
I9
I0
tp1731
tp1732
F-0.11660740872623163
s(I1
(I5
I-16
I-1
tp1733
tp1734
F0
s(I0
g1543
tp1735
F0
s(I0
(I1
I16
I2
tp1736
tp1737
F0
s(I0
(I5
I-16
I2
tp1738
tp1739
F0
s(I1
g1705
tp1740
F0.93969298011166069
s(I1
(I9
I-15
I3
tp1741
tp1742
F0
s(I0
(I4
I14
I4
tp1743
tp1744
F0
s(I1
(I3
I11
I0
tp1745
tp1746
F0
s(I0
(I-1
I-13
I-2
tp1747
tp1748
F0
s(I0
(I7
I-3
I3
tp1749
tp1750
F0.13694836857678358
s(I1
(I7
I0
I2
tp1751
tp1752
F0.13491936935638366
s(I1
(I5
I11
I0
tp1753
tp1754
F0
s(I1
(I3
I7
I0
tp1755
tp1756
F-6.3971754556097888
s(I0
(I0
I11
I3
tp1757
tp1758
F-99.999995687150118
s(I1
(I0
I6
I-1
tp1759
tp1760
F-99.999997648920811
s(I1
(I2
I-10
I-1
tp1761
tp1762
F-99.795415198887071
s(I0
g1590
tp1763
F0
s(I1
(I4
I10
I0
tp1764
tp1765
F-2.5596768778958512
s(I1
(I-1
I7
I-2
tp1766
tp1767
F0
s(I0
g45
tp1768
F-99.999991178779169
s(I0
(I9
I10
I-2
tp1769
tp1770
F0
s(I0
(I8
I8
I-2
tp1771
tp1772
F0
s(I1
(I6
I-8
I4
tp1773
tp1774
F0
s(I1
(I7
I-13
I-2
tp1775
tp1776
F0
s(I0
(I-1
I-8
I4
tp1777
tp1778
F0
s(I0
(I-1
I9
I-1
tp1779
tp1780
F2.0382116456277831e-05
s(I1
g730
tp1781
F0
s(I0
(I7
I-5
I4
tp1782
tp1783
F0
s(I1
g1777
tp1784
F0
s(I0
(I4
I12
I1
tp1785
tp1786
F0
s(I1
(I10
I4
I4
tp1787
tp1788
F0
s(I0
(I4
I-8
I-1
tp1789
tp1790
F-2.7902906358072466
s(I0
(I10
I-3
I2
tp1791
tp1792
F0
s(I0
(I3
I-8
I3
tp1793
tp1794
F0
s(I0
(I3
I11
I4
tp1795
tp1796
F-99.999913997127322
s(I1
(I1
I-8
I4
tp1797
tp1798
F0
s(I0
(I6
I16
I4
tp1799
tp1800
F0
s(I1
(I6
I8
I4
tp1801
tp1802
F-0.27210697596233935
s(I1
(I4
I-9
I-2
tp1803
tp1804
F0
s(I0
(I0
I-7
I2
tp1805
tp1806
F-99.999982967058031
s(I0
(I10
I13
I4
tp1807
tp1808
F0
s(I0
(I10
I-8
I2
tp1809
tp1810
F0
s(I1
(I8
I8
I4
tp1811
tp1812
F0.065542835965233914
s(I1
g344
tp1813
F0
s(I1
(I6
I-7
I2
tp1814
tp1815
F-1.1010690070409055
s(I0
g127
tp1816
F0
s(I0
g670
tp1817
F0
s(I1
g725
tp1818
F0
s(I1
(I10
I8
I1
tp1819
tp1820
F0
s(I0
g1036
tp1821
F0
s(I1
(I-1
I-4
I0
tp1822
tp1823
F-0.011916301592727135
s(I0
(I-1
I-5
I-2
tp1824
tp1825
F0
s(I1
g75
tp1826
F-95.433122104561207
s(I0
(I4
I3
I-2
tp1827
tp1828
F0
s(I1
(I3
I14
I4
tp1829
tp1830
F0
s(I1
(I9
I-11
I3
tp1831
tp1832
F0
s(I1
g1312
tp1833
F-0.042798183103264886
s(I1
(I-1
I-14
I0
tp1834
tp1835
F0
s(I0
(I3
I3
I2
tp1836
tp1837
F-10.845918512511801
s(I0
g850
tp1838
F0
s(I0
(I5
I11
I-2
tp1839
tp1840
F0
s(I1
(I9
I-8
I3
tp1841
tp1842
F0
s(I0
(I0
I11
I-2
tp1843
tp1844
F0
s(I0
g1012
tp1845
F-99.999992996713075
s(I0
(I10
I6
I-1
tp1846
tp1847
F0
s(I1
(I3
I-6
I-2
tp1848
tp1849
F0
s(I0
(I6
I5
I4
tp1850
tp1851
F-99.999448814562584
s(I0
(I7
I9
I3
tp1852
tp1853
F-99.999982473652935
s(I1
(I6
I9
I2
tp1854
tp1855
F0.32969258066057511
s(I1
(I9
I-12
I3
tp1856
tp1857
F0
s(I1
(I3
I14
I2
tp1858
tp1859
F0
s(I1
(I1
I4
I0
tp1860
tp1861
F-39.999968614173454
s(I1
(I5
I-14
I0
tp1862
tp1863
F0
s(I1
(I8
I2
I-2
tp1864
tp1865
F0
s(I0
(I3
I-12
I0
tp1866
tp1867
F-6.3997792549091734
s(I1
(I-1
I14
I1
tp1868
tp1869
F0
s(I0
(I7
I13
I-2
tp1870
tp1871
F0
s(I1
(I7
I16
I-1
tp1872
tp1873
F0
s(I1
(I0
I2
I-2
tp1874
tp1875
F0
s(I0
(I3
I-9
I0
tp1876
tp1877
F-6.3986301305577165
s(I0
g142
tp1878
F-99.999967464184195
s(I0
(I9
I-5
I3
tp1879
tp1880
F0
s(I0
(I-1
I8
I1
tp1881
tp1882
F-95.000586410208371
s(I0
(I3
I-3
I-2
tp1883
tp1884
F0
s(I0
(I4
I-3
I3
tp1885
tp1886
F2.5601558440022032
s(I0
(I6
I0
I4
tp1887
tp1888
F0
s(I0
(I8
I-3
I3
tp1889
tp1890
F0.064435114847815847
s(I0
(I10
I4
I2
tp1891
tp1892
F0
s(I0
g282
tp1893
F-39.809964483276033
s(I1
g393
tp1894
F0
s(I1
g1747
tp1895
F0
s(I1
(I-1
I-14
I4
tp1896
tp1897
F0
s(I1
(I2
I2
I-2
tp1898
tp1899
F0
s(I1
(I4
I-1
I2
tp1900
tp1901
F2.0980773831076815
s(I0
(I4
I-16
I-2
tp1902
tp1903
F0
s(I0
(I7
I4
I1
tp1904
tp1905
F0.15196269431562365
s(I1
(I10
I1
I0
tp1906
tp1907
F0
s(I1
(I9
I0
I1
tp1908
tp1909
F0.023526938814309888
s(I0
(I6
I-16
I-2
tp1910
tp1911
F0
s(I1
g440
tp1912
F0.060471876256048204
s(I0
(I-1
I-2
I0
tp1913
tp1914
F8.9028848714154538e-07
s(I0
(I4
I1
I3
tp1915
tp1916
F-94.88349325527858
s(I0
(I9
I-2
I1
tp1917
tp1918
F0.026112350433434042
s(I0
g1109
tp1919
F0
s(I0
g318
tp1920
F0
s(I0
g1725
tp1921
F0
s(I0
(I6
I1
I1
tp1922
tp1923
F0.40964208462189888
s(I0
(I0
I9
I-1
tp1924
tp1925
F-99.999998599415832
s(I1
(I10
I-5
I4
tp1926
tp1927
F0
s(I1
(I3
I3
I1
tp1928
tp1929
F6.4006676286042712
s(I1
(I9
I4
I-2
tp1930
tp1931
F0
s(I0
(I0
I-10
I-2
tp1932
tp1933
F0
s(I0
(I7
I-3
I4
tp1934
tp1935
F0
s(I1
(I7
I-1
I-2
tp1936
tp1937
F0
s(I1
(I2
I-12
I2
tp1938
tp1939
F0
s(I0
(I5
I-11
I1
tp1940
tp1941
F0.83055186889662913
s(I0
g476
tp1942
F2.0655305157795945
s(I0
(I8
I-6
I0
tp1943
tp1944
F0.055345198997026425
s(I0
(I-1
I10
I-2
tp1945
tp1946
F0
s(I0
(I6
I-10
I-2
tp1947
tp1948
F0
s(I0
g1193
tp1949
F0.06553702016951149
s(I0
(I5
I13
I4
tp1950
tp1951
F0
s(I1
(I0
I-13
I3
tp1952
tp1953
F0
s(I1
(I1
I-13
I-2
tp1954
tp1955
F0
s(I1
(I6
I9
I-1
tp1956
tp1957
F-0.39431231606957468
s(I1
(I2
I-3
I0
tp1958
tp1959
F-15.999919604094071
s(I0
(I-1
I10
I4
tp1960
tp1961
F-99.999993442110764
s(I1
(I7
I-6
I0
tp1962
tp1963
F-95.245261168872432
s(I0
(I4
I-5
I-1
tp1964
tp1965
F2.548606839627459
s(I1
(I6
I13
I2
tp1966
tp1967
F0
s(I1
g222
tp1968
F0
s(I0
(I0
I15
I-2
tp1969
tp1970
F0
s(I1
(I4
I14
I1
tp1971
tp1972
F0
s(I1
(I0
I-8
I0
tp1973
tp1974
F-99.999977193305739
s(I0
g505
tp1975
F6.3404026916769496
s(I1
g495
tp1976
F-2.152515082163788
s(I0
g1928
tp1977
F-6.4109687372581377
s(I0
(I6
I7
I0
tp1978
tp1979
F0.33748740287815465
s(I1
(I4
I7
I-2
tp1980
tp1981
F0
s(I0
(I7
I4
I3
tp1982
tp1983
F-99.987401393470321
s(I0
(I8
I5
I-1
tp1984
tp1985
F0.06554280936713909
s(I1
g1950
tp1986
F0
s(I1
(I-1
I-13
I2
tp1987
tp1988
F0
s(I1
(I10
I12
I-2
tp1989
tp1990
F0
s(I0
(I9
I-10
I1
tp1991
tp1992
F0.026012924408101226
s(I1
(I5
I-1
I-2
tp1993
tp1994
F0
s(I0
(I0
I6
I3
tp1995
tp1996
F-99.996214229296086
s(I0
(I10
I-5
I1
tp1997
tp1998
F0
s(I0
(I10
I-9
I0
tp1999
tp2000
F0
s(I1
(I1
I-1
I-1
tp2001
tp2002
F-36.362223286848923
s(I1
g529
tp2003
F0
s(I0
g1971
tp2004
F0
s(I0
(I5
I12
I1
tp2005
tp2006
F0
s(I1
(I0
I-5
I1
tp2007
tp2008
F-99.999982460198524
s(I1
(I0
I-8
I3
tp2009
tp2010
F0
s(I1
(I4
I-6
I2
tp2011
tp2012
F-2.5642403507777076
s(I1
(I2
I14
I-2
tp2013
tp2014
F0
s(I0
(I2
I11
I1
tp2015
tp2016
F-99.749983330567602
s(I0
g272
tp2017
F0.40653504584769473
s(I0
(I2
I-3
I-2
tp2018
tp2019
F0
s(I0
(I10
I-12
I-2
tp2020
tp2021
F0
s(I1
(I4
I-10
I-1
tp2022
tp2023
F-95.393910399304531
s(I0
g1021
tp2024
F0
s(I0
(I8
I6
I-2
tp2025
tp2026
F0
s(I0
(I0
I-7
I1
tp2027
tp2028
F-99.999958003259664
s(I1
(I4
I1
I-2
tp2029
tp2030
F0
s(I1
g1997
tp2031
F0
s(I1
(I3
I12
I2
tp2032
tp2033
F0
s(I1
(I10
I15
I0
tp2034
tp2035
F0
s(I1
(I-1
I16
I1
tp2036
tp2037
F0
s(I1
g306
tp2038
F5.2132839206516373
s(I1
g432
tp2039
F-99.999991960786815
s(I1
(I-1
I-5
I0
tp2040
tp2041
F-0.36280919046125248
s(I1
(I9
I-11
I-1
tp2042
tp2043
F-99.999995602236623
s(I1
g1046
tp2044
F0
s(I0
(I6
I-1
I-2
tp2045
tp2046
F0
s(I1
(I2
I2
I-1
tp2047
tp2048
F16.001676804276606
s(I0
(I5
I3
I4
tp2049
tp2050
F-99.9985594537536
s(I0
(I9
I6
I-1
tp2051
tp2052
F0.026217144699710045
s(I1
(I9
I-16
I2
tp2053
tp2054
F0
s(I1
(I0
I-7
I-2
tp2055
tp2056
F0
s(I0
(I10
I-10
I3
tp2057
tp2058
F0
s(I0
g682
tp2059
F0
s(I1
g575
tp2060
F0
s(I1
(I2
I-1
I4
tp2061
tp2062
F0
s(I0
(I8
I0
I3
tp2063
tp2064
F0.065426721720902178
s(I0
(I1
I13
I2
tp2065
tp2066
F0
s(I0
(I4
I0
I3
tp2067
tp2068
F-2.3113753451815455
s(I0
g1070
tp2069
F-4.8876052706476258
s(I1
g1836
tp2070
F6.4006617618810697
s(I0
(I10
I-6
I-2
tp2071
tp2072
F0
s(I0
(I3
I-8
I-1
tp2073
tp2074
F-6.4206881969772365
s(I1
(I4
I-12
I2
tp2075
tp2076
F0
s(I1
(I10
I10
I4
tp2077
tp2078
F0
s(I1
(I8
I8
I3
tp2079
tp2080
F0.065542826615931832
s(I0
(I10
I13
I3
tp2081
tp2082
F0
s(I1
(I3
I-7
I0
tp2083
tp2084
F-10.849125752967268
s(I0
(I2
I11
I-2
tp2085
tp2086
F0
s(I1
(I6
I-7
I3
tp2087
tp2088
F0
s(I1
(I8
I-11
I0
tp2089
tp2090
F-95.252528034857747
s(I0
g2053
tp2091
F0
s(I0
(I1
I-4
I-2
tp2092
tp2093
F0
s(I0
(I0
I16
I1
tp2094
tp2095
F0
s(I0
(I1
I-8
I-1
tp2096
tp2097
F-39.999961303003566
s(I0
(I3
I2
I0
tp2098
tp2099
F6.4006702255858778
s(I0
(I7
I-12
I3
tp2100
tp2101
F0
s(I0
g499
tp2102
F0
s(I0
(I4
I-1
I-2
tp2103
tp2104
F0
s(I1
(I1
I-12
I-1
tp2105
tp2106
F-99.999985750999286
s(I0
(I6
I-14
I-2
tp2107
tp2108
F0
s(I1
g362
tp2109
F0
s(I0
(I7
I1
I1
tp2110
tp2111
F0.16321351459965669
s(I1
(I-1
I-4
I-2
tp2112
tp2113
F0
s(I1
(I4
I-3
I0
tp2114
tp2115
F2.0738382405604701
s(I0
g1332
tp2116
F0
s(I0
(I5
I5
I1
tp2117
tp2118
F-0.91763778946909302
s(I1
(I6
I-4
I0
tp2119
tp2120
F-95.012332915846599
s(I0
g2089
tp2121
F0.064024401782586518
s(I1
(I-1
I1
I0
tp2122
tp2123
F4.6835839091254569e-06
s(I0
(I3
I13
I4
tp2124
tp2125
F0
s(I1
g1164
tp2126
F0
s(I1
(I3
I-14
I-2
tp2127
tp2128
F0
s(I0
g1356
tp2129
F0
s(I1
(I0
I1
I-1
tp2130
tp2131
F100.00511641771577
s(I0
(I-1
I-3
I2
tp2132
tp2133
F0.0037910040206717717
s(I0
(I3
I5
I3
tp2134
tp2135
F-99.777135046603988
s(I0
g939
tp2136
F0
s(I0
(I6
I0
I1
tp2137
tp2138
F0.40314121789042917
s(I0
(I7
I6
I1
tp2139
tp2140
F-4.5939386536161351
s(I0
(I6
I-16
I-1
tp2141
tp2142
F0
s(I0
(I2
I6
I-2
tp2143
tp2144
F0
s(I0
(I-1
I-5
I2
tp2145
tp2146
F8.2284696085331614e-06
s(I1
(I9
I4
I-1
tp2147
tp2148
F0.026204313186216691
s(I1
(I4
I13
I1
tp2149
tp2150
F0
s(I0
(I10
I-11
I2
tp2151
tp2152
F0
s(I1
g1922
tp2153
F0.34406025759119013
s(I1
g1207
tp2154
F4.9933074737886415e-06
s(I0
(I3
I-4
I0
tp2155
tp2156
F6.3150033033458968
s(I0
(I6
I6
I1
tp2157
tp2158
F-0.3640381655228293
s(I1
(I1
I-13
I3
tp2159
tp2160
F0
s(I1
(I-1
I13
I-2
tp2161
tp2162
F0
s(I1
(I8
I13
I-1
tp2163
tp2164
F0
s(I0
(I2
I1
I2
tp2165
tp2166
F-18.54553561687537
s(I1
(I1
I7
I-1
tp2167
tp2168
F-39.999993947155509
s(I0
(I0
I-5
I3
tp2169
tp2170
F0
s(I0
(I3
I8
I1
tp2171
tp2172
F-95.542296816893483
s(I0
(I9
I-10
I0
tp2173
tp2174
F0.026082701910656869
s(I1
(I5
I4
I-2
tp2175
tp2176
F0
s(I0
(I7
I9
I4
tp2177
tp2178
F-99.999992505576486
s(I1
(I9
I-7
I2
tp2179
tp2180
F-5.4044859433186794
s(I1
(I4
I3
I0
tp2181
tp2182
F2.5602682374849386
s(I1
(I6
I-13
I3
tp2183
tp2184
F0
s(I0
(I10
I14
I-2
tp2185
tp2186
F0
s(I0
(I6
I5
I0
tp2187
tp2188
F0.409642578300902
s(I0
(I6
I14
I3
tp2189
tp2190
F0
s(I1
(I5
I-3
I-1
tp2191
tp2192
F-0.76913831218361284
s(I0
g2191
tp2193
F-0.85174439928285617
s(I1
g226
tp2194
F0
s(I0
(I5
I-2
I-1
tp2195
tp2196
F0.84514320408035959
s(I1
(I1
I4
I2
tp2197
tp2198
F-39.999945372452267
s(I1
g2015
tp2199
F-15.999826812247244
s(I1
(I7
I9
I1
tp2200
tp2201
F0.16375701995166175
s(I0
g597
tp2202
F39.813212578736618
s(I1
g1430
tp2203
F6.400540478694154
s(I0
(I2
I-6
I0
tp2204
tp2205
F11.447744418529254
s(I0
(I0
I10
I0
tp2206
tp2207
F-99.749997588358426
s(I0
(I9
I-7
I4
tp2208
tp2209
F0
s(I0
(I7
I8
I1
tp2210
tp2211
F-0.1630940155940373
s(I0
g885
tp2212
F0.0034928538453599198
s(I1
g1182
tp2213
F0
s(I1
(I9
I-12
I1
tp2214
tp2215
F-99.999997888546375
s(I0
(I0
I6
I4
tp2216
tp2217
F-99.999964584914991
s(I1
(I4
I7
I3
tp2218
tp2219
F-2.5171444530225684
s(I1
(I8
I-11
I2
tp2220
tp2221
F0
s(I1
g1455
tp2222
F-2.5599693695252297
s(I0
(I3
I8
I3
tp2223
tp2224
F-99.999997310958307
s(I1
(I3
I-2
I3
tp2225
tp2226
F-6.3724009371715624
s(I1
(I8
I-9
I4
tp2227
tp2228
F0
s(I1
g430
tp2229
F0
s(I1
(I4
I2
I2
tp2230
tp2231
F2.5276919316760869
s(I0
g1628
tp2232
F0
s(I1
(I7
I12
I3
tp2233
tp2234
F0
s(I1
(I8
I12
I0
tp2235
tp2236
F0
s(I0
(I10
I14
I-1
tp2237
tp2238
F0
s(I1
g2049
tp2239
F1.0226475764466998
s(I1
g2071
tp2240
F0
s(I0
g1466
tp2241
F-99.988196911625863
s(I0
(I-1
I6
I3
tp2242
tp2243
F-99.999826247368148
s(I1
(I-1
I16
I0
tp2244
tp2245
F0
s(I1
g1025
tp2246
F0
s(I1
(I4
I2
I0
tp2247
tp2248
F2.5502261844586198
s(I0
(I0
I-3
I-1
tp2249
tp2250
F-99.99998150843723
s(I0
g1422
tp2251
F0
s(I0
(I3
I2
I-2
tp2252
tp2253
F0
s(I1
(I10
I7
I4
tp2254
tp2255
F0
s(I1
g1913
tp2256
F-0.0001197375368324913
s(I1
g509
tp2257
F100.01023966819656
s(I0
(I10
I-5
I3
tp2258
tp2259
F0
s(I0
(I1
I6
I-1
tp2260
tp2261
F-39.999972965398257
s(I0
(I6
I15
I1
tp2262
tp2263
F0
s(I1
(I1
I-2
I2
tp2264
tp2265
F-39.999984847870081
s(I1
g1295
tp2266
F-0.0021911201258083407
s(I1
(I0
I12
I1
tp2267
tp2268
F0
s(I0
(I0
I10
I-2
tp2269
tp2270
F0
s(I0
(I5
I1
I2
tp2271
tp2272
F-94.948821960284164
s(I1
(I-1
I12
I-1
tp2273
tp2274
F0
s(I1
g1549
tp2275
F-42.999756295521401
s(I1
(I0
I-16
I1
tp2276
tp2277
F0
s(I1
(I0
I12
I-1
tp2278
tp2279
F0
s(I0
g931
tp2280
F0
s(I1
(I-1
I-9
I-2
tp2281
tp2282
F0
s(I1
(I4
I-5
I-2
tp2283
tp2284
F0
s(I1
(I1
I7
I1
tp2285
tp2286
F-39.99944718623788
s(I0
(I10
I-16
I4
tp2287
tp2288
F0
s(I1
(I9
I7
I1
tp2289
tp2290
F0.02621714089045811
s(I0
g240
tp2291
F0.12679546050183033
s(I0
(I9
I3
I4
tp2292
tp2293
F-99.999999043006142
s(I0
(I9
I14
I0
tp2294
tp2295
F0
s(I1
(I-1
I-2
I1
tp2296
tp2297
F-7.0781918025191278e-05
s(I1
(I9
I-4
I-1
tp2298
tp2299
F-94.998667019559932
s(I1
(I7
I-11
I0
tp2300
tp2301
F-99.999965752644627
s(I1
g1338
tp2302
F0
s(I1
g1824
tp2303
F0
s(I1
(I-1
I-9
I0
tp2304
tp2305
F-6.9981811576359867
s(I1
(I6
I-4
I3
tp2306
tp2307
F0
s(I1
g1000
tp2308
F0
s(I0
(I8
I0
I1
tp2309
tp2310
F0.06551510950334262
s(I1
(I5
I-16
I-2
tp2311
tp2312
F0
s(I0
(I-1
I5
I1
tp2313
tp2314
F5.1468308776802078e-06
s(I1
(I-1
I12
I3
tp2315
tp2316
F0
s(I0
(I3
I13
I1
tp2317
tp2318
F0
s(I0
(I4
I5
I0
tp2319
tp2320
F-2.3260401613465476
s(I0
(I3
I-9
I3
tp2321
tp2322
F0
s(I0
(I2
I-15
I0
tp2323
tp2324
F0
s(I1
(I10
I0
I3
tp2325
tp2326
F0
s(I1
(I9
I-3
I-1
tp2327
tp2328
F0.021925184786755071
s(I0
(I-1
I15
I-1
tp2329
tp2330
F0
s(I1
(I8
I9
I2
tp2331
tp2332
F0.065542007863915216
s(I0
(I9
I1
I2
tp2333
tp2334
F0.026200219646449717
s(I1
g1915
tp2335
F2.5152469438135183
s(I0
(I10
I-3
I0
tp2336
tp2337
F0
s(I0
(I9
I7
I-1
tp2338
tp2339
F0.026217147689037528
s(I1
g1461
tp2340
F0
s(I0
(I9
I-8
I-2
tp2341
tp2342
F0
s(I0
g1547
tp2343
F0
s(I0
g1105
tp2344
F0
s(I1
g1611
tp2345
F0.061392436641394738
s(I1
(I9
I-2
I4
tp2346
tp2347
F0
s(I1
(I2
I16
I1
tp2348
tp2349
F0
s(I0
(I5
I14
I0
tp2350
tp2351
F0
s(I1
(I6
I3
I3
tp2352
tp2353
F0.40955798384051051
s(I1
g1370
tp2354
F0
s(I0
g1477
tp2355
F0
s(I1
(I8
I12
I-2
tp2356
tp2357
F0
s(I1
g1374
tp2358
F0
s(I1
g537
tp2359
F-7.37553030961503
s(I0
(I9
I5
I-1
tp2360
tp2361
F0.026214772684061183
s(I1
g2338
tp2362
F0.026217143151468773
s(I0
g2348
tp2363
F0
s(I0
g1405
tp2364
F6.6678647614250544e-06
s(I0
(I5
I-1
I2
tp2365
tp2366
F0.94405255392361431
s(I0
(I3
I-15
I1
tp2367
tp2368
F0
s(I0
(I3
I-1
I-2
tp2369
tp2370
F0
s(I0
(I8
I-6
I3
tp2371
tp2372
F0
s(I1
(I4
I-12
I0
tp2373
tp2374
F-99.998579449949673
s(I1
g799
tp2375
F0
s(I0
(I3
I5
I4
tp2376
tp2377
F-99.999959621523445
s(I0
(I0
I6
I2
tp2378
tp2379
F-99.999998742676667
s(I1
(I5
I-11
I3
tp2380
tp2381
F0
s(I0
(I4
I13
I0
tp2382
tp2383
F0
s(I0
g9
tp2384
F0
s(I1
(I4
I-4
I4
tp2385
tp2386
F0
s(I1
(I-1
I-12
I2
tp2387
tp2388
F0
s(I1
(I6
I13
I4
tp2389
tp2390
F0
s(I0
(I-1
I-4
I-1
tp2391
tp2392
F-9.794938261910462e-05
s(I0
(I5
I-11
I2
tp2393
tp2394
F0
s(I0
(I1
I0
I3
tp2395
tp2396
F-39.999992777568572
s(I0
(I4
I6
I3
tp2397
tp2398
F-2.8035973511149868
s(I0
(I9
I-7
I1
tp2399
tp2400
F0.024304040354899505
s(I0
g1395
tp2401
F0
s(I1
g719
tp2402
F0
s(I1
(I4
I-1
I3
tp2403
tp2404
F2.0980792079340098
s(I0
(I3
I16
I1
tp2405
tp2406
F0
s(I0
(I-1
I-16
I-1
tp2407
tp2408
F0
s(I1
(I5
I-7
I4
tp2409
tp2410
F0
s(I1
(I6
I-1
I2
tp2411
tp2412
F0.3118174501720915
s(I0
(I2
I9
I0
tp2413
tp2414
F-15.999993018784588
s(I1
g1453
tp2415
F1.0152915920064638
s(I1
(I7
I-3
I-2
tp2416
tp2417
F0
s(I1
(I3
I7
I4
tp2418
tp2419
F-6.3999641245598688
s(I0
(I4
I-12
I1
tp2420
tp2421
F-2.538460154280088
s(I1
(I7
I-7
I-2
tp2422
tp2423
F0
s(I1
g57
tp2424
F0
s(I0
(I6
I-11
I-2
tp2425
tp2426
F0
s(I0
(I2
I1
I3
tp2427
tp2428
F-99.990007154036192
s(I1
(I4
I2
I3
tp2429
tp2430
F2.5602429155691477
s(I1
(I0
I5
I0
tp2431
tp2432
F-99.999998779413019
s(I0
(I8
I-12
I4
tp2433
tp2434
F0
s(I0
(I4
I7
I2
tp2435
tp2436
F-95.140173349442918
s(I0
(I3
I-7
I1
tp2437
tp2438
F6.3991427164020536
s(I0
(I7
I4
I0
tp2439
tp2440
F0.16385669549976006
s(I1
(I10
I11
I2
tp2441
tp2442
F0
s(I0
(I6
I7
I3
tp2443
tp2444
F-95.257551564858005
s(I0
(I7
I15
I4
tp2445
tp2446
F0
s(I0
(I1
I15
I-1
tp2447
tp2448
F0
s(I1
(I3
I-10
I1
tp2449
tp2450
F-6.9206236258417615
s(I1
(I6
I-8
I0
tp2451
tp2452
F0.37823163084733813
s(I1
g1505
tp2453
F0
s(I0
(I9
I-15
I1
tp2454
tp2455
F0
s(I0
(I0
I3
I3
tp2456
tp2457
F-99.999994519980248
s(I0
(I-1
I11
I1
tp2458
tp2459
F-99.996213864003877
s(I0
(I5
I-7
I-2
tp2460
tp2461
F0
s(I0
(I10
I12
I-1
tp2462
tp2463
F0
s(I1
(I6
I0
I-1
tp2464
tp2465
F0.34173856010125608
s(I0
(I3
I11
I-2
tp2466
tp2467
F0
s(I0
(I8
I0
I2
tp2468
tp2469
F0.065267170826961582
s(I0
g906
tp2470
F0
s(I0
(I7
I-8
I-1
tp2471
tp2472
F-0.11144042983555766
s(I1
g1727
tp2473
F0
s(I0
(I1
I16
I-2
tp2474
tp2475
F0
s(I1
(I-1
I5
I4
tp2476
tp2477
F8.7358055343936004e-06
s(I0
(I5
I-4
I-2
tp2478
tp2479
F0
s(I1
(I2
I6
I1
tp2480
tp2481
F-15.999993643098129
s(I0
(I10
I13
I0
tp2482
tp2483
F0
s(I0
g795
tp2484
F0
s(I0
g1479
tp2485
F0
s(I0
(I4
I-4
I-2
tp2486
tp2487
F0
s(I0
(I3
I-8
I0
tp2488
tp2489
F-6.3725423355585047
s(I0
g1545
tp2490
F0
s(I1
(I10
I-12
I1
tp2491
tp2492
F0
s(I1
g763
tp2493
F0
s(I1
g807
tp2494
F16.00166421177806
s(I1
g1771
tp2495
F0
s(I1
g732
tp2496
F-96.999968820773404
s(I0
g15
tp2497
F0
s(I1
g1323
tp2498
F-2.1769792555186385
s(I0
(I6
I-3
I-2
tp2499
tp2500
F0
s(I0
(I6
I15
I3
tp2501
tp2502
F0
s(I0
g1027
tp2503
F-99.999993975788342
s(I0
(I5
I6
I2
tp2504
tp2505
F-95.062979609644856
s(I1
(I-1
I-4
I1
tp2506
tp2507
F-0.0056181254706248046
s(I1
g2486
tp2508
F0
s(I1
(I1
I11
I3
tp2509
tp2510
F-39.999966680590092
s(I1
g949
tp2511
F0
s(I1
g121
tp2512
F0
s(I0
(I-1
I-2
I-2
tp2513
tp2514
F0
s(I0
(I4
I-3
I-2
tp2515
tp2516
F0
s(I0
(I5
I-9
I4
tp2517
tp2518
F0
s(I0
(I3
I-9
I4
tp2519
tp2520
F0
s(I0
(I-1
I5
I0
tp2521
tp2522
F0.00023409401346525892
s(I0
(I3
I5
I2
tp2523
tp2524
F-10.845998728028093
s(I0
(I7
I7
I4
tp2525
tp2526
F-99.99999899059749
s(I1
(I2
I-14
I3
tp2527
tp2528
F0
s(I1
(I10
I-4
I3
tp2529
tp2530
F0
s(I1
(I1
I12
I2
tp2531
tp2532
F0
s(I0
(I7
I-5
I3
tp2533
tp2534
F0
s(I1
(I1
I-13
I4
tp2535
tp2536
F0
s(I0
g202
tp2537
F0
s(I1
(I-1
I13
I4
tp2538
tp2539
F0
s(I0
g371
tp2540
F0
s(I1
(I5
I9
I4
tp2541
tp2542
F-0.93912838685248079
s(I1
(I4
I1
I4
tp2543
tp2544
F2.5262403828129507
s(I0
(I1
I8
I-2
tp2545
tp2546
F0
s(I1
(I8
I16
I2
tp2547
tp2548
F0
s(I0
(I-1
I-2
I3
tp2549
tp2550
F0.00019022747725815344
s(I0
g1854
tp2551
F-99.999991265010081
s(I0
(I8
I14
I-2
tp2552
tp2553
F0
s(I1
g1870
tp2554
F0
s(I1
(I3
I-11
I0
tp2555
tp2556
F-96.927856191722299
s(I0
(I3
I8
I2
tp2557
tp2558
F-11.079411409629998
s(I1
(I10
I8
I-1
tp2559
tp2560
F0
s(I1
(I7
I-16
I-2
tp2561
tp2562
F0
s(I1
g898
tp2563
F0
s(I1
(I2
I12
I4
tp2564
tp2565
F0
s(I0
(I3
I1
I-2
tp2566
tp2567
F0
s(I0
(I8
I10
I-2
tp2568
tp2569
F0
s(I0
(I0
I-9
I4
tp2570
tp2571
F0
s(I0
g599
tp2572
F0.0014400866488451351
s(I0
(I-1
I2
I1
tp2573
tp2574
F8.3890203501688955e-05
s(I0
(I6
I-6
I4
tp2575
tp2576
F0
s(I0
(I2
I-3
I-1
tp2577
tp2578
F-15.99617456292003
s(I0
(I7
I5
I1
tp2579
tp2580
F0.1638570680221231
s(I0
(I6
I-9
I-2
tp2581
tp2582
F0
s(I0
g1327
tp2583
F0
s(I1
(I8
I-5
I-2
tp2584
tp2585
F0
s(I1
(I5
I11
I2
tp2586
tp2587
F-1.0239693870554729
s(I1
(I7
I-9
I-1
tp2588
tp2589
F-1.9522835659220306
s(I1
(I9
I9
I-2
tp2590
tp2591
F0
s(I1
(I4
I-5
I1
tp2592
tp2593
F-2.5716427467141987
s(I0
g1874
tp2594
F0
s(I1
(I5
I-7
I2
tp2595
tp2596
F-1.0426017532465803
s(I1
(I4
I6
I0
tp2597
tp2598
F1.9278835855115606
s(I0
(I7
I-3
I1
tp2599
tp2600
F0.16375860789781704
s(I1
g2323
tp2601
F0
s(I0
(I9
I0
I-2
tp2602
tp2603
F0
s(I1
(I6
I-15
I-1
tp2604
tp2605
F0
s(I1
(I2
I6
I-1
tp2606
tp2607
F-15.999983255421013
s(I1
(I10
I7
I-1
tp2608
tp2609
F0
s(I0
(I7
I8
I2
tp2610
tp2611
F-95.008140125902287
s(I1
g1150
tp2612
F0
s(I0
(I7
I2
I-1
tp2613
tp2614
F0.1638553661802262
s(I0
(I6
I1
I-2
tp2615
tp2616
F0
s(I1
g161
tp2617
F0
s(I1
(I4
I9
I-2
tp2618
tp2619
F0
s(I0
g1721
tp2620
F-94.998717551576476
s(I0
(I2
I0
I-1
tp2621
tp2622
F16.001675408352188
s(I0
(I7
I12
I2
tp2623
tp2624
F0
s(I0
g423
tp2625
F0
s(I0
(I3
I-8
I4
tp2626
tp2627
F0
s(I0
(I4
I-12
I-2
tp2628
tp2629
F0
s(I1
(I6
I1
I4
tp2630
tp2631
F0.34054792181573829
s(I1
g1661
tp2632
F0
s(I0
g1665
tp2633
F2.5602625378271968
s(I0
g2105
tp2634
F-97.14996726743297
s(I0
(I10
I-12
I3
tp2635
tp2636
F0
s(I0
g2273
tp2637
F0
s(I0
(I3
I-15
I4
tp2638
tp2639
F0
s(I0
(I10
I-7
I0
tp2640
tp2641
F0
s(I0
g555
tp2642
F0
s(I1
g184
tp2643
F0
s(I0
g61
tp2644
F0
s(I0
(I-1
I11
I0
tp2645
tp2646
F0
s(I0
g1707
tp2647
F-0.99738708500976569
s(I1
(I7
I10
I-1
tp2648
tp2649
F-0.13184196366852044
s(I0
(I10
I-9
I-2
tp2650
tp2651
F0
s(I1
(I-1
I-14
I1
tp2652
tp2653
F0
s(I1
(I8
I4
I4
tp2654
tp2655
F0.065304498729342644
s(I1
g399
tp2656
F0
s(I1
(I3
I-11
I-2
tp2657
tp2658
F0
s(I1
(I0
I-11
I-2
tp2659
tp2660
F0
s(I1
g336
tp2661
F0
s(I0
(I5
I-11
I4
tp2662
tp2663
F0
s(I1
(I-1
I11
I4
tp2664
tp2665
F0.0015871141324783759
s(I1
(I4
I-1
I-1
tp2666
tp2667
F-2.0745788137136709
s(I0
(I7
I15
I1
tp2668
tp2669
F0
s(I0
(I-1
I16
I2
tp2670
tp2671
F0
s(I0
g103
tp2672
F0
s(I1
g984
tp2673
F0.40160857629284402
s(I1
(I9
I-13
I0
tp2674
tp2675
F0
s(I1
(I1
I-1
I-2
tp2676
tp2677
F0
s(I1
(I3
I-16
I1
tp2678
tp2679
F0
s(I1
(I3
I-2
I2
tp2680
tp2681
F-5.2432812357286434
s(I1
(I-1
I6
I-1
tp2682
tp2683
F9.7333548303287713e-05
s(I0
(I3
I3
I4
tp2684
tp2685
F-99.999452307255467
s(I1
(I-1
I4
I0
tp2686
tp2687
F2.5061550095549209e-06
s(I0
(I10
I-7
I-2
tp2688
tp2689
F0
s(I1
(I9
I-5
I-1
tp2690
tp2691
F-0.016535625114238006
s(I0
(I-1
I-12
I4
tp2692
tp2693
F0
s(I1
(I7
I-6
I1
tp2694
tp2695
F-95.005970134144277
s(I1
(I1
I7
I2
tp2696
tp2697
F-39.999967626011554
s(I1
(I3
I-13
I2
tp2698
tp2699
F0
s(I0
g2127
tp2700
F0
s(I0
(I5
I-12
I0
tp2701
tp2702
F-1.0107225518065859
s(I0
g1238
tp2703
F0
s(I0
g2036
tp2704
F0
s(I0
(I1
I6
I4
tp2705
tp2706
F-99.999814896723066
s(I0
(I3
I-12
I-1
tp2707
tp2708
F-10.846010015066241
s(I1
(I3
I13
I-2
tp2709
tp2710
F0
s(I0
g1674
tp2711
F0
s(I1
g2517
tp2712
F0
s(I0
(I-1
I9
I4
tp2713
tp2714
F-99.999998299322073
s(I0
(I10
I9
I0
tp2715
tp2716
F0
s(I0
g1773
tp2717
F0
s(I1
(I4
I5
I-1
tp2718
tp2719
F2.5602669672014575
s(I0
g2529
tp2720
F0
s(I1
(I1
I11
I2
tp2721
tp2722
F-39.999990607579896
s(I1
(I8
I9
I1
tp2723
tp2724
F0.065542857512505687
s(I1
(I10
I-13
I1
tp2725
tp2726
F0
s(I1
(I6
I-4
I4
tp2727
tp2728
F0
s(I1
g334
tp2729
F0.00020884815548610013
s(I1
g1271
tp2730
F0
s(I1
(I-1
I9
I1
tp2731
tp2732
F1.1371361921939504e-05
s(I0
(I4
I-11
I3
tp2733
tp2734
F0
s(I1
(I1
I11
I-1
tp2735
tp2736
F0
s(I0
(I1
I-5
I3
tp2737
tp2738
F0
s(I1
(I-1
I11
I-2
tp2739
tp2740
F0
s(I0
(I9
I9
I2
tp2741
tp2742
F-99.988088311880119
s(I0
(I6
I-7
I4
tp2743
tp2744
F0
s(I1
(I-1
I-13
I-1
tp2745
tp2746
F0
s(I1
(I1
I13
I-2
tp2747
tp2748
F0
s(I1
(I3
I-6
I0
tp2749
tp2750
F-36.799807907110925
s(I0
(I6
I-13
I-2
tp2751
tp2752
F0
s(I0
g2561
tp2753
F0
s(I0
(I0
I5
I4
tp2754
tp2755
F-99.999999203564954
s(I0
(I0
I-16
I3
tp2756
tp2757
F0
s(I0
(I-1
I14
I4
tp2758
tp2759
F0
s(I1
(I9
I6
I2
tp2760
tp2761
F0.026217142269685786
s(I1
(I8
I1
I3
tp2762
tp2763
F0.064504053705129766
s(I1
(I8
I-4
I2
tp2764
tp2765
F-0.054487813321626596
s(I1
(I4
I16
I2
tp2766
tp2767
F0
s(I0
g2606
tp2768
F-15.999985443674342
s(I1
(I-1
I-11
I0
tp2769
tp2770
F-42.999737557087755
s(I1
g1321
tp2771
F0
s(I1
(I2
I5
I-1
tp2772
tp2773
F-15.999993202166815
s(I0
(I3
I-14
I3
tp2774
tp2775
F0
s(I0
g1936
tp2776
F0
s(I0
g413
tp2777
F-99.999994102760752
s(I1
g1879
tp2778
F0
s(I1
g1308
tp2779
F0
s(I1
(I4
I12
I-1
tp2780
tp2781
F0
s(I0
g1656
tp2782
F-39.999765746369462
s(I0
g87
tp2783
F0
s(I0
g2564
tp2784
F0
s(I0
g1336
tp2785
F0
s(I0
(I1
I1
I0
tp2786
tp2787
F-35.999334070998799
s(I0
g2077
tp2788
F0
s(I0
(I5
I5
I4
tp2789
tp2790
F-99.999879032646959
s(I0
g1930
tp2791
F0
s(I1
(I7
I-7
I0
tp2792
tp2793
F-95.020132291727194
s(I0
(I9
I-10
I3
tp2794
tp2795
F0
s(I0
g559
tp2796
F0
s(I1
(I-1
I0
I-1
tp2797
tp2798
F0.00019005471966882436
s(I1
g1613
tp2799
F0
s(I1
(I6
I9
I0
tp2800
tp2801
F-0.37303030709628521
s(I1
(I10
I14
I0
tp2802
tp2803
F0
s(I1
g2478
tp2804
F0
s(I1
(I10
I3
I4
tp2805
tp2806
F0
s(I1
(I2
I4
I1
tp2807
tp2808
F-14.4073639399633
s(I0
(I-1
I2
I3
tp2809
tp2810
F-0.2374778745718702
s(I0
(I7
I-14
I0
tp2811
tp2812
F0
s(I1
(I10
I-10
I-2
tp2813
tp2814
F0
s(I0
(I-1
I11
I3
tp2815
tp2816
F-99.999996972722528
s(I0
g2159
tp2817
F0
s(I1
(I6
I-10
I0
tp2818
tp2819
F-95.158315544231314
s(I0
(I-1
I-3
I1
tp2820
tp2821
F8.8074262246132996e-05
s(I0
(I9
I-6
I2
tp2822
tp2823
F0.026195667563690368
s(I0
g547
tp2824
F0
s(I0
(I7
I-9
I2
tp2825
tp2826
F0.15674264135778765
s(I1
(I4
I8
I-2
tp2827
tp2828
F0
s(I1
(I3
I16
I-1
tp2829
tp2830
F0
s(I1
(I4
I1
I2
tp2831
tp2832
F2.316598112101369
s(I1
g425
tp2833
F-0.29256527748950811
s(I0
(I6
I-6
I2
tp2834
tp2835
F0.37468391879578944
s(I1
(I2
I-7
I-2
tp2836
tp2837
F0
s(I1
(I7
I10
I4
tp2838
tp2839
F0.13507473050377611
s(I0
(I3
I4
I2
tp2840
tp2841
F-95.331108507641133
s(I0
g1380
tp2842
F-99.999985203955276
s(I1
g407
tp2843
F0
s(I1
(I4
I11
I1
tp2844
tp2845
F-2.4380762696825129
s(I1
g1571
tp2846
F-5.7792855292399281
s(I1
g1289
tp2847
F0
s(I0
(I9
I15
I4
tp2848
tp2849
F0
s(I0
(I3
I0
I2
tp2850
tp2851
F6.3986963800479995
s(I1
g459
tp2852
F-0.85905933867693729
s(I1
(I4
I2
I4
tp2853
tp2854
F2.5602651930843785
s(I1
(I0
I-1
I1
tp2855
tp2856
F100.01021706594869
s(I1
(I2
I-1
I1
tp2857
tp2858
F-14.414367058010438
s(I1
(I2
I3
I3
tp2859
tp2860
F16.001671206817157
s(I1
g2157
tp2861
F0.40964251846977906
s(I0
(I9
I14
I-1
tp2862
tp2863
F0
s(I1
(I2
I-6
I1
tp2864
tp2865
F-16.010799873538815
s(I0
(I4
I7
I4
tp2866
tp2867
F-99.99999863528825
s(I1
g1093
tp2868
F0
s(I1
(I6
I8
I1
tp2869
tp2870
F0.40697192293076023
s(I1
(I6
I3
I0
tp2871
tp2872
F0.4078935742003697
s(I0
(I5
I5
I2
tp2873
tp2874
F-99.752578521923496
s(I1
(I7
I4
I-1
tp2875
tp2876
F0.16385267682170773
s(I1
(I5
I-8
I3
tp2877
tp2878
F0
s(I0
(I9
I-3
I4
tp2879
tp2880
F0
s(I0
(I10
I14
I4
tp2881
tp2882
F0
s(I0
(I4
I-15
I0
tp2883
tp2884
F0
s(I0
(I2
I-2
I0
tp2885
tp2886
F16.001676631939684
s(I1
(I6
I-4
I-2
tp2887
tp2888
F0
s(I0
(I6
I-8
I2
tp2889
tp2890
F0.4096115523382714
s(I1
(I-1
I1
I-2
tp2891
tp2892
F0
s(I0
(I7
I-10
I0
tp2893
tp2894
F-0.077488928268956869
s(I0
(I5
I3
I-2
tp2895
tp2896
F0
s(I1
(I4
I14
I-2
tp2897
tp2898
F0
s(I0
g1199
tp2899
F0
s(I0
(I-1
I1
I4
tp2900
tp2901
F-99.999951171935322
s(I1
(I-1
I-3
I0
tp2902
tp2903
F-0.00020061467410661542
s(I0
g1639
tp2904
F0.026017585088848154
s(I1
g1050
tp2905
F0
s(I0
(I5
I7
I2
tp2906
tp2907
F-5.7259450921477395
s(I1
(I4
I-4
I-1
tp2908
tp2909
F-2.5551479168842341
s(I0
g1766
tp2910
F0
s(I1
(I-1
I12
I-2
tp2911
tp2912
F0
s(I0
g2254
tp2913
F0
s(I1
(I0
I15
I4
tp2914
tp2915
F0
s(I0
(I6
I0
I3
tp2916
tp2917
F0.40964242285464186
s(I0
(I-1
I9
I3
tp2918
tp2919
F-99.999986555567432
s(I1
(I3
I3
I-2
tp2920
tp2921
F0
s(I1
(I5
I6
I1
tp2922
tp2923
F1.0241065351909846
s(I0
(I10
I-11
I-1
tp2924
tp2925
F0
s(I0
(I10
I11
I-2
tp2926
tp2927
F0
s(I1
g1964
tp2928
F-2.5608731074946349
s(I1
(I2
I-9
I-2
tp2929
tp2930
F0
s(I1
g2067
tp2931
F2.5459988890323251
s(I0
(I7
I-14
I-1
tp2932
tp2933
F0
s(I1
(I9
I14
I4
tp2934
tp2935
F0
s(I1
(I10
I-7
I1
tp2936
tp2937
F0
s(I1
(I1
I10
I4
tp2938
tp2939
F-39.999987718024485
s(I0
(I-1
I-10
I4
tp2940
tp2941
F0
s(I0
g672
tp2942
F0
s(I1
g2513
tp2943
F0
s(I0
g2075
tp2944
F0
s(I0
g1096
tp2945
F0
s(I0
(I7
I-9
I-2
tp2946
tp2947
F0
s(I0
(I5
I2
I2
tp2948
tp2949
F1.006569672218153
s(I0
(I3
I-4
I-1
tp2950
tp2951
F-6.3679667642789211
s(I1
(I-1
I-12
I0
tp2952
tp2953
F-99.999997387823356
s(I0
(I3
I-2
I1
tp2954
tp2955
F6.3453861931865738
s(I1
g2287
tp2956
F0
s(I1
g1526
tp2957
F-99.999458835342622
s(I0
g294
tp2958
F0
s(I1
(I8
I-4
I1
tp2959
tp2960
F0.043301539817343714
s(I1
(I-1
I6
I4
tp2961
tp2962
F3.594356253259191e-05
s(I1
g583
tp2963
F-99.999803234516733
s(I1
(I6
I12
I-2
tp2964
tp2965
F0
s(I0
(I4
I4
I2
tp2966
tp2967
F-95.359378096077094
s(I0
g484
tp2968
F-99.99999876762196
s(I0
(I0
I-8
I4
tp2969
tp2970
F0
s(I1
g820
tp2971
F0
s(I0
(I-1
I13
I0
tp2972
tp2973
F0
s(I0
(I0
I-9
I-2
tp2974
tp2975
F0
s(I1
(I7
I5
I0
tp2976
tp2977
F0.16382756648700775
s(I1
g1555
tp2978
F-39.999965335030481
s(I1
(I4
I6
I2
tp2979
tp2980
F2.0723040331336628
s(I0
(I10
I3
I-1
tp2981
tp2982
F0
s(I1
g1432
tp2983
F-2.3203652038752494
s(I1
g1384
tp2984
F-0.62864595785335187
s(I1
(I8
I1
I-2
tp2985
tp2986
F0
s(I1
g1843
tp2987
F0
s(I1
(I0
I12
I2
tp2988
tp2989
F0
s(I1
(I0
I-6
I2
tp2990
tp2991
F-99.999452548101374
s(I1
(I1
I-14
I2
tp2992
tp2993
F0
s(I0
g2559
tp2994
F0
s(I1
(I1
I0
I-1
tp2995
tp2996
F40.003453118430912
s(I1
(I-1
I-8
I3
tp2997
tp2998
F0
s(I0
(I7
I-2
I3
tp2999
tp3000
F0.16318658863626648
s(I0
(I10
I-4
I-2
tp3001
tp3002
F0
s(I0
g2831
tp3003
F2.5602606307564217
s(I0
g813
tp3004
F-99.999971614360376
s(I0
(I2
I-7
I0
tp3005
tp3006
F-15.999990249022288
s(I0
g1906
tp3007
F0
s(I1
g2640
tp3008
F0
s(I0
(I-1
I-3
I4
tp3009
tp3010
F0
s(I0
(I4
I-2
I1
tp3011
tp3012
F2.5190016012540362
s(I1
(I6
I14
I2
tp3013
tp3014
F0
s(I0
(I8
I-2
I0
tp3015
tp3016
F0.065515232839613094
s(I0
(I6
I7
I-2
tp3017
tp3018
F0
s(I1
(I-1
I-15
I-1
tp3019
tp3020
F0
s(I1
(I3
I-7
I3
tp3021
tp3022
F0
s(I1
(I9
I12
I-2
tp3023
tp3024
F0
s(I1
g658
tp3025
F0
s(I1
(I5
I-4
I2
tp3026
tp3027
F0.93429540282013768
s(I1
(I2
I-4
I2
tp3028
tp3029
F-15.999997637750862
s(I0
(I6
I4
I1
tp3030
tp3031
F0.40964168098054771
s(I1
g1133
tp3032
F-0.017138278833804883
s(I0
(I2
I-2
I1
tp3033
tp3034
F15.99064769432729
s(I0
(I7
I-14
I-2
tp3035
tp3036
F0
s(I1
(I6
I13
I3
tp3037
tp3038
F0
s(I0
(I9
I13
I0
tp3039
tp3040
F0
s(I1
(I7
I3
I2
tp3041
tp3042
F0.16311656943262817
s(I0
g1391
tp3043
F0
s(I0
(I10
I5
I1
tp3044
tp3045
F0
s(I0
(I0
I6
I0
tp3046
tp3047
F-99.999997663204809
s(I0
g2588
tp3048
F-0.1979370370662199
s(I1
(I5
I-7
I1
tp3049
tp3050
F-5.6433633375755647
s(I0
(I2
I-8
I-2
tp3051
tp3052
F0
s(I1
(I2
I-16
I3
tp3053
tp3054
F0
s(I1
g2395
tp3055
F-32.20004246007818
s(I0
(I7
I15
I0
tp3056
tp3057
F0
s(I1
(I10
I3
I0
tp3058
tp3059
F0
s(I0
(I8
I-3
I-2
tp3060
tp3061
F0
s(I0
g2283
tp3062
F0
s(I1
(I4
I-2
I-1
tp3063
tp3064
F2.0627514122204778
s(I1
(I5
I-6
I0
tp3065
tp3066
F-2.1268705571091839
s(I0
g113
tp3067
F0
s(I0
g2652
tp3068
F0
s(I1
(I10
I10
I-2
tp3069
tp3070
F0
s(I0
(I6
I10
I0
tp3071
tp3072
F0
s(I0
g2244
tp3073
F0
s(I1
(I6
I0
I2
tp3074
tp3075
F0.408696478594896
s(I1
(I2
I15
I0
tp3076
tp3077
F0
s(I1
(I2
I-9
I-1
tp3078
tp3079
F-95.800490282509813
s(I1
(I9
I-3
I-2
tp3080
tp3081
F0
s(I0
g571
tp3082
F4.195643532597262e-05
s(I0
g2385
tp3083
F0
s(I1
g2445
tp3084
F0
s(I1
(I6
I-7
I1
tp3085
tp3086
F0.32483875478440305
s(I0
(I4
I-1
I4
tp3087
tp3088
F0
s(I0
(I5
I8
I3
tp3089
tp3090
F-99.999992082148751
s(I1
(I3
I-2
I4
tp3091
tp3092
F0
s(I0
(I-1
I-14
I3
tp3093
tp3094
F0
s(I1
g2397
tp3095
F2.558016453504695
s(I0
g2875
tp3096
F0.16385697790859716
s(I0
g1156
tp3097
F0
s(I1
(I4
I-3
I4
tp3098
tp3099
F0
s(I0
(I6
I8
I0
tp3100
tp3101
F-0.33808094032780722
s(I1
(I5
I15
I4
tp3102
tp3103
F0
s(I1
(I10
I-2
I3
tp3104
tp3105
F0
s(I1
(I5
I-4
I1
tp3106
tp3107
F0.88965465421425183
s(I0
(I4
I-11
I4
tp3108
tp3109
F0
s(I1
(I7
I-13
I2
tp3110
tp3111
F0
s(I1
g1493
tp3112
F0
s(I1
g2420
tp3113
F-99.999978003897397
s(I1
(I8
I8
I2
tp3114
tp3115
F0.065542834633856684
s(I1
(I7
I14
I2
tp3116
tp3117
F0
s(I0
(I4
I2
I-2
tp3118
tp3119
F0
s(I0
g678
tp3120
F-99.999921724157744
s(I0
(I2
I16
I3
tp3121
tp3122
F0
s(I1
g2437
tp3123
F-6.4415932299473697
s(I0
(I9
I11
I4
tp3124
tp3125
F-99.999950749552781
s(I0
(I-1
I-6
I-2
tp3126
tp3127
F0
s(I0
(I10
I3
I-2
tp3128
tp3129
F0
s(I0
(I0
I-2
I-2
tp3130
tp3131
F0
s(I0
(I9
I7
I-2
tp3132
tp3133
F0
s(I0
g2509
tp3134
F-99.999782541575087
s(I1
(I3
I-16
I0
tp3135
tp3136
F0
s(I1
(I8
I-16
I-1
tp3137
tp3138
F0
s(I1
(I10
I1
I1
tp3139
tp3140
F0
s(I1
(I8
I-16
I3
tp3141
tp3142
F0
s(I0
(I7
I-13
I3
tp3143
tp3144
F0
s(I0
g2735
tp3145
F0
s(I1
(I7
I-8
I-2
tp3146
tp3147
F0
s(I1
(I10
I-2
I-2
tp3148
tp3149
F0
s(I0
(I9
I-8
I-1
tp3150
tp3151
F0.0066219568261038364
s(I0
g1565
tp3152
F0
s(I0
g2130
tp3153
F100.01019232802939
s(I1
(I5
I-9
I-1
tp3154
tp3155
F-95.797610547315671
s(I1
(I3
I9
I0
tp3156
tp3157
F-6.399961165467138
s(I1
(I0
I-6
I0
tp3158
tp3159
F-99.999998633495622
s(I0
(I7
I9
I2
tp3160
tp3161
F-99.762847395459829
s(I1
g171
tp3162
F-99.999993976647744
s(I0
g3065
tp3163
F0.85083672697596602
s(I0
g2311
tp3164
F0
s(I0
(I-1
I2
I-2
tp3165
tp3166
F0
s(I1
(I8
I-5
I-1
tp3167
tp3168
F0.063487770529612422
s(I0
g1811
tp3169
F-99.999969344270355
s(I0
g916
tp3170
F0
s(I1
(I4
I-14
I-2
tp3171
tp3172
F0
s(I0
(I0
I1
I1
tp3173
tp3174
F90.034961840404208
s(I0
(I6
I14
I-2
tp3175
tp3176
F0
s(I0
g1718
tp3177
F0
s(I0
(I9
I6
I-2
tp3178
tp3179
F0
s(I1
(I6
I-10
I2
tp3180
tp3181
F0
s(I1
(I5
I12
I-1
tp3182
tp3183
F0
s(I0
(I7
I4
I2
tp3184
tp3185
F-4.5943330609203201
s(I1
(I9
I7
I3
tp3186
tp3187
F0.026217134473228498
s(I1
(I3
I-15
I-2
tp3188
tp3189
F0
s(I0
(I10
I7
I-2
tp3190
tp3191
F0
s(I0
(I-1
I-14
I-2
tp3192
tp3193
F0
s(I1
g769
tp3194
F0
s(I1
g2581
tp3195
F0
s(I0
(I1
I-5
I4
tp3196
tp3197
F0
s(I0
(I10
I15
I2
tp3198
tp3199
F0
s(I0
g1741
tp3200
F0
s(I1
g2751
tp3201
F0
s(I1
(I7
I-11
I3
tp3202
tp3203
F0
s(I1
(I9
I16
I2
tp3204
tp3205
F0
s(I0
(I-1
I-7
I-1
tp3206
tp3207
F0.00042682185097364309
s(I1
(I6
I6
I2
tp3208
tp3209
F0.40964270209033854
s(I1
(I10
I10
I3
tp3210
tp3211
F0
s(I1
(I5
I-7
I0
tp3212
tp3213
F-1.1436792269755252
s(I0
(I0
I-9
I1
tp3214
tp3215
F-99.999917697675315
s(I0
(I4
I10
I3
tp3216
tp3217
F-99.999990369694288
s(I0
(I2
I11
I4
tp3218
tp3219
F-99.999984071574545
s(I1
g2670
tp3220
F0
s(I1
(I3
I-13
I-2
tp3221
tp3222
F0
s(I1
(I4
I-15
I3
tp3223
tp3224
F0
s(I0
g1677
tp3225
F0
s(I1
(I3
I12
I4
tp3226
tp3227
F0
s(I1
g3071
tp3228
F-0.32037863251109311
s(I0
g921
tp3229
F0
s(I0
(I4
I-5
I2
tp3230
tp3231
F2.3401214363565215
s(I1
(I3
I-14
I4
tp3232
tp3233
F0
s(I0
g664
tp3234
F-1.0231323362689102
s(I1
(I0
I-11
I2
tp3235
tp3236
F0
s(I1
(I7
I2
I-2
tp3237
tp3238
F0
s(I1
(I9
I-3
I1
tp3239
tp3240
F0.025265039064353075
s(I0
g3171
tp3241
F0
s(I0
(I3
I3
I0
tp3242
tp3243
F-4.6585128634455
s(I0
(I6
I3
I2
tp3244
tp3245
F0.17116870662302563
s(I0
g1029
tp3246
F-15.999963813955951
s(I0
(I6
I-6
I-2
tp3247
tp3248
F0
s(I1
g2579
tp3249
F0.16385713710357191
s(I1
(I3
I-4
I3
tp3250
tp3251
F0
s(I0
(I-1
I-10
I-2
tp3252
tp3253
F0
s(I0
g2061
tp3254
F0
s(I1
(I1
I-4
I-1
tp3255
tp3256
F-40.000004319909536
s(I0
(I1
I3
I0
tp3257
tp3258
F-39.999962747582956
s(I1
g1793
tp3259
F0
s(I0
g3226
tp3260
F0
s(I0
(I10
I-9
I1
tp3261
tp3262
F0
s(I1
(I3
I-11
I2
tp3263
tp3264
F0
s(I1
g1809
tp3265
F0
s(I0
g1261
tp3266
F0
s(I0
g3239
tp3267
F0.025890664423248794
s(I0
(I1
I-12
I1
tp3268
tp3269
F-39.999993744640868
s(I0
(I0
I-4
I-2
tp3270
tp3271
F0
s(I1
g3051
tp3272
F0
s(I1
g1060
tp3273
F0.026217077998505308
s(I0
g2451
tp3274
F0.40507320119831836
s(I1
(I3
I-12
I4
tp3275
tp3276
F0
s(I0
(I3
I4
I-2
tp3277
tp3278
F0
s(I0
(I3
I-10
I2
tp3279
tp3280
F0
s(I0
g342
tp3281
F-94.961095114513242
s(I1
g2684
tp3282
F6.4006709280282781
s(I0
(I-1
I3
I3
tp3283
tp3284
F-0.24945310986238578
s(I1
g497
tp3285
F0.001004167349743167
s(I1
(I8
I5
I-2
tp3286
tp3287
F0
s(I0
(I9
I-6
I-2
tp3288
tp3289
F0
s(I1
g348
tp3290
F0
s(I0
(I0
I-5
I-1
tp3291
tp3292
F-99.999877468822916
s(I0
(I8
I-14
I-2
tp3293
tp3294
F0
s(I1
(I-1
I16
I-1
tp3295
tp3296
F0
s(I1
(I4
I-1
I1
tp3297
tp3298
F2.3060788473626772
s(I1
g1743
tp3299
F0
s(I1
(I1
I10
I2
tp3300
tp3301
F-39.999991738330529
s(I0
(I3
I0
I0
tp3302
tp3303
F6.4006485161145372
s(I0
(I7
I-2
I-1
tp3304
tp3305
F0.14769429772998408
s(I0
(I3
I-14
I0
tp3306
tp3307
F0
s(I0
(I6
I5
I-1
tp3308
tp3309
F0.40964266402843741
s(I0
(I5
I-14
I-1
tp3310
tp3311
F0
s(I1
(I8
I-12
I1
tp3312
tp3313
F-99.999915835637893
s(I1
g992
tp3314
F0.054619141374875065
s(I1
g1757
tp3315
F-99.999968790027452
s(I1
(I7
I11
I0
tp3316
tp3317
F0
s(I1
g3165
tp3318
F0
s(I1
g2145
tp3319
F-0.00010812151002996843
s(I1
g2139
tp3320
F0.16385707354237444
s(I0
g1129
tp3321
F-40.007125327791947
s(I1
(I8
I-15
I1
tp3322
tp3323
F0
s(I0
g2674
tp3324
F0
s(I1
(I4
I7
I-1
tp3325
tp3326
F-2.1429423364226525
s(I1
(I0
I4
I0
tp3327
tp3328
F-99.999968009168356
s(I0
(I10
I16
I0
tp3329
tp3330
F0
s(I1
(I1
I-8
I0
tp3331
tp3332
F-42.849997458292364
s(I0
(I10
I-7
I3
tp3333
tp3334
F0
s(I1
(I5
I-11
I-1
tp3335
tp3336
F-96.831380283450926
s(I1
g2610
tp3337
F0.16385707327584967
s(I0
(I5
I5
I0
tp3338
tp3339
F1.0152423625492719
s(I1
g1215
tp3340
F0
s(I1
g1934
tp3341
F0
s(I1
(I3
I10
I0
tp3342
tp3343
F-6.3999684215990751
s(I1
g1799
tp3344
F0
s(I0
(I-1
I10
I-1
tp3345
tp3346
F0.0014670342471058446
s(I1
g1530
tp3347
F0
s(I0
(I3
I-2
I-1
tp3348
tp3349
F5.7636196511823643
s(I1
(I0
I-3
I2
tp3350
tp3351
F-99.999960512502824
s(I1
(I1
I-6
I3
tp3352
tp3353
F0
s(I0
(I6
I9
I4
tp3354
tp3355
F-99.999968256213663
s(I1
(I7
I0
I3
tp3356
tp3357
F0.16287573133641661
s(I1
(I4
I4
I4
tp3358
tp3359
F2.5602682221360276
s(I0
g2296
tp3360
F4.2615800590393429e-05
s(I0
(I2
I-2
I-1
tp3361
tp3362
F12.896334600581165
s(I1
g1187
tp3363
F0.16246037450384548
s(I1
g1982
tp3364
F0.16385624979471547
s(I1
g3214
tp3365
F-99.999969758408795
s(I0
(I6
I4
I0
tp3366
tp3367
F0.40964284334338946
s(I0
(I-1
I10
I0
tp3368
tp3369
F0.00026927605865861891
s(I0
(I6
I-14
I4
tp3370
tp3371
F0
s(I0
g216
tp3372
F0
s(I1
(I9
I16
I3
tp3373
tp3374
F0
s(I1
(I1
I9
I-1
tp3375
tp3376
F-39.999987245126476
s(I0
g2597
tp3377
F-2.5589191675437672
s(I0
(I5
I16
I1
tp3378
tp3379
F0
s(I0
(I10
I9
I3
tp3380
tp3381
F0
s(I1
(I6
I11
I-2
tp3382
tp3383
F0
s(I0
g3232
tp3384
F0
s(I0
(I7
I8
I-1
tp3385
tp3386
F0.16378659141293669
s(I1
g228
tp3387
F0.16371495411271297
s(I1
g1098
tp3388
F0
s(I1
(I4
I-13
I2
tp3389
tp3390
F0
s(I1
(I9
I4
I3
tp3391
tp3392
F0.025899215767421851
s(I0
g155
tp3393
F-6.339609258584515
s(I0
(I7
I-12
I-2
tp3394
tp3395
F0
s(I1
(I10
I-13
I-2
tp3396
tp3397
F0
s(I0
(I3
I0
I-1
tp3398
tp3399
F6.3728004537275353
s(I1
(I-1
I-9
I4
tp3400
tp3401
F0
s(I0
g2032
tp3402
F0
s(I1
g3257
tp3403
F-39.989878975025896
s(I0
g1682
tp3404
F1.0144748637788432
s(I1
(I-1
I-12
I3
tp3405
tp3406
F0
s(I1
(I10
I1
I-1
tp3407
tp3408
F0
s(I1
g3380
tp3409
F0
s(I1
(I5
I-10
I0
tp3410
tp3411
F-18.67504742339645
s(I1
g2889
tp3412
F-0.66270738963050446
s(I0
g274
tp3413
F-1.023996779796478
s(I1
(I4
I5
I2
tp3414
tp3415
F2.5602670624112593
s(I1
g551
tp3416
F-90.499498508298458
s(I0
g1146
tp3417
F0
s(I1
(I0
I-7
I0
tp3418
tp3419
F-99.999997349220166
s(I1
(I7
I-1
I4
tp3420
tp3421
F0
s(I1
g1769
tp3422
F0
s(I0
(I0
I-12
I4
tp3423
tp3424
F0
s(I0
(I0
I3
I2
tp3425
tp3426
F-99.99990150458693
s(I1
(I7
I1
I-1
tp3427
tp3428
F0.10509579072777069
s(I1
(I7
I-16
I3
tp3429
tp3430
F0
s(I1
(I4
I3
I1
tp3431
tp3432
F2.559717549239982
s(I1
(I1
I-5
I-1
tp3433
tp3434
F-39.999961281069268
s(I0
(I2
I14
I2
tp3435
tp3436
F0
s(I1
g2100
tp3437
F0
s(I1
g2668
tp3438
F0
s(I1
(I5
I4
I4
tp3439
tp3440
F1.0241073115403561
s(I0
g1600
tp3441
F0.15170528309256934
s(I1
g1225
tp3442
F0
s(I0
(I-1
I0
I3
tp3443
tp3444
F-1.4173546695278811e-05
s(I0
(I10
I11
I4
tp3445
tp3446
F0
s(I1
g2025
tp3447
F0
s(I1
(I3
I8
I-2
tp3448
tp3449
F0
s(I1
(I4
I-7
I-1
tp3450
tp3451
F-2.5697237750969384
s(I1
(I7
I-3
I2
tp3452
tp3453
F0.028182517469875157
s(I1
(I6
I14
I1
tp3454
tp3455
F0
s(I1
g3015
tp3456
F0.059963847436448135
s(I0
(I4
I-13
I-1
tp3457
tp3458
F0
s(I0
(I1
I-13
I-1
tp3459
tp3460
F0
s(I0
(I4
I3
I4
tp3461
tp3462
F-99.999987606084616
s(I0
g1314
tp3463
F0
s(I0
(I0
I-8
I-2
tp3464
tp3465
F0
s(I1
g2124
tp3466
F0
s(I1
(I8
I-6
I-2
tp3467
tp3468
F0
s(I0
(I10
I16
I1
tp3469
tp3470
F0
s(I1
(I5
I-4
I3
tp3471
tp3472
F0
s(I1
(I10
I-1
I1
tp3473
tp3474
F0
s(I1
g2705
tp3475
F-39.999965432234816
s(I0
g1310
tp3476
F0
s(I1
g694
tp3477
F1.5384161248675948e-05
s(I1
(I10
I-8
I-1
tp3478
tp3479
F0
s(I1
g2906
tp3480
F1.0180882326684906
s(I1
g1513
tp3481
F0
s(I1
(I7
I7
I3
tp3482
tp3483
F0.16385707628269047
s(I1
g605
tp3484
F6.4006649275881085
s(I0
g2859
tp3485
F-99.989924657964664
s(I1
(I7
I11
I3
tp3486
tp3487
F-0.13858201058965922
s(I1
g2027
tp3488
F-99.9999155680147
s(I1
(I9
I-12
I4
tp3489
tp3490
F0
s(I0
g2721
tp3491
F-99.999967212644066
s(I1
(I1
I-1
I4
tp3492
tp3493
F0
s(I1
(I1
I-11
I-1
tp3494
tp3495
F-99.992781360821766
s(I1
(I2
I8
I4
tp3496
tp3497
F-15.999994413229738
s(I0
(I6
I-15
I3
tp3498
tp3499
F0
s(I0
(I5
I10
I2
tp3500
tp3501
F-99.999453400534605
s(I0
g2934
tp3502
F0
s(I1
(I4
I-11
I-2
tp3503
tp3504
F0
s(I1
g2460
tp3505
F0
s(I0
(I8
I-6
I-1
tp3506
tp3507
F-4.9258923822416989
s(I1
(I2
I-12
I-1
tp3508
tp3509
F-99.999987304030725
s(I1
(I0
I-11
I4
tp3510
tp3511
F0
s(I1
(I8
I4
I-2
tp3512
tp3513
F0
s(I1
g405
tp3514
F0
s(I0
(I0
I-16
I-1
tp3515
tp3516
F0
s(I0
g1154
tp3517
F-99.999979222264784
s(I1
(I10
I12
I4
tp3518
tp3519
F0
s(I0
(I1
I-1
I0
tp3520
tp3521
F40.004194206671826
s(I0
(I8
I-9
I-1
tp3522
tp3523
F0.063981568404295946
s(I1
(I9
I0
I2
tp3524
tp3525
F0.025733083440394849
s(I0
g2464
tp3526
F0.40608246081675342
s(I0
(I7
I-5
I0
tp3527
tp3528
F0.16356818068608511
s(I0
(I5
I9
I-1
tp3529
tp3530
F-1.0239877276591431
s(I1
(I4
I16
I-2
tp3531
tp3532
F0
s(I0
(I3
I11
I2
tp3533
tp3534
F-99.999997104940618
s(I0
g2079
tp3535
F-99.999993460606788
s(I0
(I2
I9
I1
tp3536
tp3537
F-19.989818002487681
s(I0
(I-1
I-10
I-1
tp3538
tp3539
F-36.205420207527347
s(I0
g457
tp3540
F-99.999954418196779
s(I1
(I4
I14
I2
tp3541
tp3542
F0
s(I1
g2204
tp3543
F-99.842716216424449
s(I1
(I10
I13
I2
tp3544
tp3545
F0
s(I0
g2590
tp3546
F0
s(I0
(I8
I3
I-2
tp3547
tp3548
F0
s(I0
(I6
I-15
I1
tp3549
tp3550
F0
s(I1
g1415
tp3551
F0
s(I0
g1121
tp3552
F13.178128494091562
s(I0
g2936
tp3553
F0
s(I1
g1436
tp3554
F0.059218332412139772
s(I1
(I3
I12
I3
tp3555
tp3556
F0
s(I1
(I4
I-2
I3
tp3557
tp3558
F-2.0521958680205188
s(I1
g1426
tp3559
F0
s(I1
g2223
tp3560
F-6.3999911588057801
s(I0
(I2
I16
I0
tp3561
tp3562
F0
s(I0
(I0
I7
I-2
tp3563
tp3564
F0
s(I1
g210
tp3565
F0
s(I1
(I3
I5
I1
tp3566
tp3567
F6.2849255509104358
s(I1
g2602
tp3568
F0
s(I0
g515
tp3569
F6.4005240257563516
s(I1
g3394
tp3570
F0
s(I0
(I6
I2
I1
tp3571
tp3572
F0.40964186925654311
s(I0
(I1
I16
I4
tp3573
tp3574
F0
s(I0
(I1
I12
I1
tp3575
tp3576
F0
s(I0
g1457
tp3577
F0
s(I0
g2976
tp3578
F0.1638570823787584
s(I1
(I8
I11
I-2
tp3579
tp3580
F0
s(I1
(I5
I12
I3
tp3581
tp3582
F0
s(I0
g1081
tp3583
F-2.0632332950397787
s(I1
(I6
I-9
I1
tp3584
tp3585
F-2.2836710838376608
s(I1
(I9
I3
I0
tp3586
tp3587
F0.026194764250644417
s(I0
(I10
I-6
I2
tp3588
tp3589
F0
s(I1
(I3
I-11
I3
tp3590
tp3591
F0
s(I1
(I3
I-16
I3
tp3592
tp3593
F0
s(I0
(I8
I-7
I0
tp3594
tp3595
F0.064145369531286717
s(I1
g1489
tp3596
F0
s(I1
(I2
I8
I-1
tp3597
tp3598
F-15.999963259064126
s(I0
(I2
I-6
I-1
tp3599
tp3600
F-20.189497804075927
s(I0
(I0
I-12
I1
tp3601
tp3602
F-99.999751239186551
s(I0
(I9
I-3
I0
tp3603
tp3604
F0.02616122110806075
s(I0
g2373
tp3605
F-2.5599949298756428
s(I1
g3056
tp3606
F0
s(I1
(I0
I5
I2
tp3607
tp3608
F-99.999927483706841
s(I1
(I4
I-8
I4
tp3609
tp3610
F0
s(I1
g1827
tp3611
F0
s(I1
g2252
tp3612
F0
s(I1
(I10
I5
I-1
tp3613
tp3614
F0
s(I0
g2877
tp3615
F0
s(I0
g1723
tp3616
F0
s(I1
(I8
I-13
I0
tp3617
tp3618
F0
s(I0
(I9
I1
I-1
tp3619
tp3620
F0.025897807750389978
s(I1
(I7
I-7
I-1
tp3621
tp3622
F-5.3808391548714525
s(I1
g2210
tp3623
F0.16385716810993461
s(I1
(I2
I-11
I0
tp3624
tp3625
F-40.041412031154962
s(I0
(I6
I-11
I-1
tp3626
tp3627
F-14.617544810437591
s(I1
(I5
I-13
I2
tp3628
tp3629
F0
s(I0
g977
tp3630
F-99.999997228962883
s(I1
g2216
tp3631
F-99.999985877208616
s(I1
(I7
I-13
I1
tp3632
tp3633
F0
s(I0
g1872
tp3634
F0
s(I1
g3089
tp3635
F-0.93570548963532496
s(I1
(I0
I3
I1
tp3636
tp3637
F-99.999993755763782
s(I1
g27
tp3638
F0
s(I1
g1440
tp3639
F0
s(I0
g1575
tp3640
F0
s(I1
(I6
I3
I-1
tp3641
tp3642
F0.37450898984713554
s(I0
g2922
tp3643
F-1.0242345626142675
s(I0
(I-1
I-6
I4
tp3644
tp3645
F0
s(I1
g1350
tp3646
F0
s(I1
(I-1
I12
I1
tp3647
tp3648
F0
s(I0
(I0
I-14
I-2
tp3649
tp3650
F0
s(I1
(I8
I16
I-1
tp3651
tp3652
F0
s(I1
(I3
I11
I3
tp3653
tp3654
F-6.3999076091594684
s(I1
g1211
tp3655
F0.017051375877357413
s(I1
g51
tp3656
F-6.3712425921713578
s(I1
(I9
I-15
I4
tp3657
tp3658
F0
s(I0
(I9
I0
I0
tp3659
tp3660
F0.026216329984134291
s(I1
(I1
I-13
I2
tp3661
tp3662
F0
s(I0
(I9
I-4
I-2
tp3663
tp3664
F0
s(I1
g2811
tp3665
F0
s(I0
g1376
tp3666
F0
s(I1
g1609
tp3667
F0
s(I0
(I2
I-6
I4
tp3668
tp3669
F0
s(I1
(I3
I7
I2
tp3670
tp3671
F-6.3984596612620042
s(I0
(I5
I-6
I4
tp3672
tp3673
F0
s(I0
(I6
I4
I3
tp3674
tp3675
F-95.231369193714485
s(I1
(I-1
I-6
I-1
tp3676
tp3677
F-0.25684840166072309
s(I1
(I7
I-7
I4
tp3678
tp3679
F0
s(I0
(I4
I-12
I-1
tp3680
tp3681
F-95.370335620015794
s(I1
(I4
I16
I1
tp3682
tp3683
F0
s(I0
(I10
I13
I-2
tp3684
tp3685
F0
s(I0
g900
tp3686
F-39.999913343501845
s(I1
(I7
I-16
I0
tp3687
tp3688
F0
s(I0
g3141
tp3689
F0
s(I1
(I1
I11
I-2
tp3690
tp3691
F0
s(I1
(I4
I-14
I1
tp3692
tp3693
F0
s(I1
g912
tp3694
F0
s(I0
(I4
I14
I-1
tp3695
tp3696
F0
s(I1
(I9
I5
I0
tp3697
tp3698
F0.026214010516238857
s(I1
(I-1
I-11
I-2
tp3699
tp3700
F0
s(I1
g3522
tp3701
F-95.101363893722194
s(I0
(I6
I-3
I3
tp3702
tp3703
F0.37731520712475447
s(I0
(I10
I-7
I4
tp3704
tp3705
F0
s(I0
(I5
I-3
I-2
tp3706
tp3707
F0
s(I0
(I7
I11
I-2
tp3708
tp3709
F0
s(I1
(I10
I8
I0
tp3710
tp3711
F0
s(I1
g1846
tp3712
F0
s(I0
(I0
I-7
I-1
tp3713
tp3714
F-99.999965917420553
s(I1
(I6
I1
I2
tp3715
tp3716
F0.40593791632800186
s(I0
g742
tp3717
F40.004184451418254
s(I0
g935
tp3718
F0
s(I0
(I8
I6
I0
tp3719
tp3720
F0.065542853856581734
s(I0
(I-1
I-9
I3
tp3721
tp3722
F0
s(I0
(I2
I10
I4
tp3723
tp3724
F-99.999924533300202
s(I0
(I4
I14
I0
tp3725
tp3726
F0
s(I0
(I3
I-1
I1
tp3727
tp3728
F6.2920750307003663
s(I1
g3173
tp3729
F100.01047157705393
s(I0
(I7
I-6
I-2
tp3730
tp3731
F0
s(I1
g3520
tp3732
F-39.818964458755957
s(I0
(I2
I-13
I3
tp3733
tp3734
F0
s(I0
g2535
tp3735
F0
s(I1
g2433
tp3736
F0
s(I1
g1411
tp3737
F0
s(I1
(I6
I-12
I-1
tp3738
tp3739
F-99.999986019457879
s(I0
(I9
I-6
I1
tp3740
tp3741
F0.026184860771367714
s(I0
(I4
I0
I-2
tp3742
tp3743
F0
s(I0
(I1
I-11
I2
tp3744
tp3745
F0
s(I1
g3143
tp3746
F0
s(I1
g3030
tp3747
F0.40964254833596081
s(I0
g3715
tp3748
F0.40361843366677624
s(I1
g553
tp3749
F0
s(I0
(I5
I8
I1
tp3750
tp3751
F-1.0239966557698181
s(I1
g2103
tp3752
F0
s(I1
g960
tp3753
F-2.5599913211505485
s(I1
(I0
I-4
I3
tp3754
tp3755
F0
s(I1
(I3
I-1
I4
tp3756
tp3757
F0
s(I0
g1710
tp3758
F0
s(I0
g3202
tp3759
F0
s(I0
g3156
tp3760
F-6.3999972578054836
s(I0
g2929
tp3761
F0
s(I0
g3204
tp3762
F0
s(I0
(I5
I-3
I0
tp3763
tp3764
F1.020319920631378
s(I0
(I-1
I-2
I4
tp3765
tp3766
F0
s(I1
(I1
I16
I3
tp3767
tp3768
F0
s(I0
(I8
I0
I-2
tp3769
tp3770
F0
s(I0
g3210
tp3771
F0
s(I1
(I5
I9
I3
tp3772
tp3773
F-1.0183857324265135
s(I1
g1491
tp3774
F0
s(I1
(I6
I-9
I-1
tp3775
tp3776
F-99.785308858522853
s(I1
(I7
I-7
I3
tp3777
tp3778
F0
s(I1
g2018
tp3779
F0
s(I1
(I7
I-4
I3
tp3780
tp3781
F0
s(I0
g1745
tp3782
F0
s(I0
g2592
tp3783
F2.1060104455106776
s(I1
g1749
tp3784
F0.081310185200070995
s(I0
(I4
I-14
I-1
tp3785
tp3786
F0
s(I0
g1010
tp3787
F-1.8551270063473799
s(I1
g3763
tp3788
F-0.8689998825605233
s(I0
(I10
I-15
I-1
tp3789
tp3790
F0
s(I1
g779
tp3791
F-39.999994633875993
s(I1
g1521
tp3792
F-6.399992875425526
s(I1
(I10
I4
I1
tp3793
tp3794
F0
s(I1
(I0
I7
I0
tp3795
tp3796
F-99.99999953873845
s(I0
(I9
I11
I2
tp3797
tp3798
F-99.999990087197958
s(I1
g3242
tp3799
F6.400657958524067
s(I1
(I5
I-16
I3
tp3800
tp3801
F0
s(I0
(I6
I15
I4
tp3802
tp3803
F0
s(I1
(I5
I8
I0
tp3804
tp3805
F0.74610028298982578
s(I0
(I8
I11
I1
tp3806
tp3807
F0
s(I1
g2365
tp3808
F0.75205111266065749
s(I0
g2887
tp3809
F0
s(I0
(I4
I-13
I3
tp3810
tp3811
F0
s(I1
g2405
tp3812
F0
s(I1
(I2
I-4
I-2
tp3813
tp3814
F0
s(I0
(I2
I-9
I0
tp3815
tp3816
F-15.999988472813493
s(I1
g3218
tp3817
F-15.999951642674825
s(I0
(I5
I1
I-2
tp3818
tp3819
F0
s(I0
(I8
I-8
I0
tp3820
tp3821
F0.065217084082567808
s(I0
g1561
tp3822
F0
s(I1
(I2
I-11
I4
tp3823
tp3824
F0
s(I0
g1989
tp3825
F0
s(I1
(I2
I13
I3
tp3826
tp3827
F0
s(I1
(I7
I6
I-2
tp3828
tp3829
F0
s(I1
(I4
I8
I4
tp3830
tp3831
F-2.5599947087856734
s(I1
(I1
I3
I-2
tp3832
tp3833
F0
s(I0
g3275
tp3834
F0
s(I0
(I4
I3
I3
tp3835
tp3836
F-2.5721101961422237
s(I1
g35
tp3837
F-0.12430544221264754
s(I1
(I6
I1
I-1
tp3838
tp3839
F0.30899278715262024
s(I0
(I6
I0
I0
tp3840
tp3841
F0.37921792375106322
s(I1
(I8
I15
I2
tp3842
tp3843
F0
s(I0
(I3
I-9
I-2
tp3844
tp3845
F0
s(I0
(I6
I-9
I0
tp3846
tp3847
F0.40427585550705292
s(I0
g1585
tp3848
F-99.999920177756991
s(I0
(I1
I4
I-2
tp3849
tp3850
F0
s(I1
(I1
I1
I-2
tp3851
tp3852
F0
s(I1
g3244
tp3853
F0.40794963400378731
s(I0
g3114
tp3854
F-5.0521082028889595
s(I0
g1062
tp3855
F-99.999452611672439
s(I0
g858
tp3856
F-99.768547938193052
s(I0
(I7
I2
I1
tp3857
tp3858
F0.16322919182990661
s(I0
(I7
I6
I4
tp3859
tp3860
F-99.999963605068103
s(I1
g1619
tp3861
F0
s(I0
g1079
tp3862
F0
s(I0
g3800
tp3863
F0
s(I1
(I8
I16
I-2
tp3864
tp3865
F0
s(I0
g1841
tp3866
F0
s(I1
g340
tp3867
F0
s(I1
(I7
I3
I-1
tp3868
tp3869
F0.16315572966626243
s(I1
(I10
I0
I1
tp3870
tp3871
F0
s(I0
g1076
tp3872
F-99.999991431656994
s(I0
(I1
I-5
I2
tp3873
tp3874
F-32.390500508419152
s(I0
g3146
tp3875
F0
s(I1
g129
tp3876
F0
s(I0
(I2
I2
I1
tp3877
tp3878
F-14.555915699652292
s(I0
g3597
tp3879
F-15.999959139096553
s(I1
(I10
I-14
I0
tp3880
tp3881
F0
s(I0
(I5
I13
I0
tp3882
tp3883
F0
s(I0
(I6
I3
I4
tp3884
tp3885
F-99.999990900169294
s(I1
g2621
tp3886
F15.922398805311406
s(I1
g2713
tp3887
F7.9776896311528405e-05
s(I0
g3870
tp3888
F0
s(I1
(I3
I-4
I2
tp3889
tp3890
F-6.4758010157619896
s(I1
g1881
tp3891
F3.0381613890486269e-05
s(I0
(I2
I-5
I1
tp3892
tp3893
F-12.948818082376469
s(I0
g674
tp3894
F0
s(I0
g387
tp3895
F-2.5599951780924397
s(I0
(I7
I10
I1
tp3896
tp3897
F-99.999928096037024
s(I0
g2630
tp3898
F-99.999720041612989
s(I1
g2143
tp3899
F0
s(I1
g3882
tp3900
F0
s(I1
g397
tp3901
F0
s(I1
g3001
tp3902
F0
s(I1
(I9
I9
I1
tp3903
tp3904
F0.026217141636874806
s(I1
(I6
I14
I-1
tp3905
tp3906
F0
s(I0
(I7
I-2
I2
tp3907
tp3908
F0.16384931872376413
s(I1
(I7
I1
I0
tp3909
tp3910
F0.15045200924618476
s(I1
g1932
tp3911
F0
s(I1
g3750
tp3912
F-1.0182486479960602
s(I1
g2893
tp3913
F-5.1296963527273363
s(I0
(I-1
I-10
I1
tp3914
tp3915
F0.0037641350946373497
s(I1
(I-1
I-16
I2
tp3916
tp3917
F0
s(I0
(I2
I-2
I2
tp3918
tp3919
F16.001675394679616
s(I0
g3396
tp3920
F0
s(I1
g3846
tp3921
F-5.4237343975339662
s(I0
(I3
I14
I-2
tp3922
tp3923
F0
s(I0
g3063
tp3924
F-2.3276046981219518
s(I0
(I9
I-1
I2
tp3925
tp3926
F0.02621657509116794
s(I1
(I10
I8
I4
tp3927
tp3928
F0
s(I1
g744
tp3929
F0.022032496017359651
s(I1
(I6
I-13
I-1
tp3930
tp3931
F0
s(I1
(I2
I-9
I3
tp3932
tp3933
F0
s(I1
g1940
tp3934
F-37.980043957861895
s(I0
g2908
tp3935
F2.5215831699414704
s(I1
g3366
tp3936
F0.40953469228373568
s(I0
g856
tp3937
F-39.999990202808092
s(I1
(I1
I1
I2
tp3938
tp3939
F40.004159141158652
s(I0
(I7
I-14
I1
tp3940
tp3941
F0
s(I0
(I6
I6
I-1
tp3942
tp3943
F0.40964269336655473
s(I1
g1805
tp3944
F-99.999996066450606
s(I0
(I10
I-6
I1
tp3945
tp3946
F0
s(I1
(I0
I8
I-1
tp3947
tp3948
F-99.999985943019652
s(I0
g190
tp3949
F0.026217142504288457
s(I1
(I4
I-10
I4
tp3950
tp3951
F0
s(I1
g889
tp3952
F2.3690207362023997e-05
s(I0
(I2
I-16
I1
tp3953
tp3954
F0
s(I1
(I7
I8
I3
tp3955
tp3956
F0.16385716145147605
s(I0
g3208
tp3957
F-99.988112107027035
s(I0
g3467
tp3958
F0
s(I1
g2924
tp3959
F0
s(I1
g2566
tp3960
F0
s(I1
(I7
I-14
I4
tp3961
tp3962
F0
s(I1
g3175
tp3963
F0
s(I1
g360
tp3964
F-1.2603844522341186e-05
s(I1
(I7
I-4
I4
tp3965
tp3966
F0
s(I0
g3382
tp3967
F0
s(I0
g1714
tp3968
F0
s(I0
(I2
I2
I4
tp3969
tp3970
F-99.999938982974896
s(I0
(I7
I-1
I2
tp3971
tp3972
F0.16383425570084528
s(I1
(I7
I8
I0
tp3973
tp3974
F0.1638569291243101
s(I1
(I4
I-9
I2
tp3975
tp3976
F0
s(I1
g486
tp3977
F0
s(I0
(I4
I-8
I3
tp3978
tp3979
F0
s(I0
g1751
tp3980
F0.14971590143936175
s(I1
(I4
I4
I1
tp3981
tp3982
F2.5602623175569716
s(I1
g3820
tp3983
F-4.8166648975710871
s(I1
(I5
I8
I4
tp3984
tp3985
F-0.91560034669557233
s(I1
(I0
I7
I1
tp3986
tp3987
F-99.999990692333981
s(I0
(I0
I-13
I0
tp3988
tp3989
F0
s(I1
(I0
I-10
I-1
tp3990
tp3991
F-99.99999920995154
s(I0
(I0
I-10
I1
tp3992
tp3993
F-99.999992339001011
s(I1
g2822
tp3994
F-0.70078215039451219
s(I1
g151
tp3995
F-1.2866504189570818
s(I0
(I3
I4
I3
tp3996
tp3997
F-99.999971993802674
s(I0
g1242
tp3998
F-95.011131456550714
s(I1
g1246
tp3999
F-0.38911885206390018
s(I0
g3864
tp4000
F0
s(I1
g153
tp4001
F0
s(I1
(I7
I8
I-2
tp4002
tp4003
F0
s(I1
g258
tp4004
F-39.990883487788516
s(I1
(I3
I10
I-1
tp4005
tp4006
F-6.3999898230200376
s(I1
g1253
tp4007
F-5.2509619712524653
s(I1
(I8
I8
I-1
tp4008
tp4009
F0.065542869370959184
s(I0
(I2
I10
I1
tp4010
tp4011
F-99.989950691476579
s(I1
g2462
tp4012
F0
s(I1
g2840
tp4013
F6.4006690326056521
s(I0
(I0
I-2
I1
tp4014
tp4015
F100.01017726354762
s(I0
(I6
I-12
I0
tp4016
tp4017
F-0.32587541063872039
s(I0
(I5
I-12
I1
tp4018
tp4019
F-0.75895666799096151
s(I1
(I2
I-1
I-2
tp4020
tp4021
F0
s(I0
(I9
I-8
I2
tp4022
tp4023
F0.026215492321744353
s(I0
g1263
tp4024
F0
s(I0
(I10
I16
I2
tp4025
tp4026
F0
s(I1
g846
tp4027
F-99.999972197140366
s(I1
g3769
tp4028
F0
s(I0
(I2
I-1
I2
tp4029
tp4030
F16.001677312940643
s(I1
g324
tp4031
F-0.001969107963966675
s(I1
(I0
I9
I-2
tp4032
tp4033
F0
s(I0
(I9
I6
I1
tp4034
tp4035
F0.026217146876496632
s(I0
g2747
tp4036
F0
s(I1
(I6
I9
I-2
tp4037
tp4038
F0
s(I0
g832
tp4039
F0
s(I1
g569
tp4040
F0
s(I1
(I-1
I-12
I-2
tp4041
tp4042
F0
s(I0
(I4
I8
I-1
tp4043
tp4044
F-2.5599974388584039
s(I0
g2871
tp4045
F0.40961989842452051
s(I0
(I9
I3
I-1
tp4046
tp4047
F0.026094141427940764
s(I0
g1829
tp4048
F0
s(I0
(I10
I11
I1
tp4049
tp4050
F0
s(I1
g3310
tp4051
F0
s(I0
g322
tp4052
F0.14715600911268467
s(I0
g2547
tp4053
F0
s(I0
(I6
I-8
I-1
tp4054
tp4055
F-15.842289811133771
s(I1
(I8
I-3
I4
tp4056
tp4057
F0
s(I0
(I8
I3
I1
tp4058
tp4059
F0.065541330469569545
s(I1
g2117
tp4060
F1.0241050598612553
s(I0
g2119
tp4061
F0.40734545396818211
s(I1
(I0
I-15
I-2
tp4062
tp4063
F0
s(I0
(I9
I15
I-2
tp4064
tp4065
F0
s(I0
g3431
tp4066
F2.548107834302948
s(I0
(I3
I14
I1
tp4067
tp4068
F0
s(I0
(I3
I10
I4
tp4069
tp4070
F-99.999968096567287
s(I1
(I9
I15
I2
tp4071
tp4072
F0
s(I1
(I2
I0
I1
tp4073
tp4074
F14.549808711731286
s(I1
(I-1
I9
I-2
tp4075
tp4076
F0
s(I1
(I5
I-16
I0
tp4077
tp4078
F0
s(I0
(I0
I-6
I-1
tp4079
tp4080
F-99.999451523182827
s(I1
g2137
tp4081
F0.3649603896404201
s(I1
g2815
tp4082
F0.0015128975174568278
s(I0
(I8
I5
I1
tp4083
tp4084
F-94.99670979819976
s(I0
g4056
tp4085
F0
s(I0
(I5
I-13
I-2
tp4086
tp4087
F0
s(I1
(I4
I-7
I0
tp4088
tp4089
F-2.7166184234721626
s(I0
g3641
tp4090
F0.40758977847048344
s(I0
g2149
tp4091
F0
s(I0
g2920
tp4092
F0
s(I1
g1910
tp4093
F0
s(I1
(I1
I-12
I3
tp4094
tp4095
F0
s(I0
(I6
I-15
I4
tp4096
tp4097
F0
s(I0
(I9
I-12
I-1
tp4098
tp4099
F-38.00342666033314
s(I0
g1131
tp4100
F0
s(I0
g2838
tp4101
F-99.999785590320826
s(I0
(I9
I14
I1
tp4102
tp4103
F0
s(I1
(I7
I-16
I2
tp4104
tp4105
F0
s(I0
(I3
I16
I2
tp4106
tp4107
F0
s(I1
(I1
I-3
I-2
tp4108
tp4109
F0
s(I1
(I2
I-4
I0
tp4110
tp4111
F-37.659967573667537
s(I1
g4083
tp4112
F0.065492122181299448
s(I0
g684
tp4113
F0
s(I0
g2167
tp4114
F-39.999983764742339
s(I1
(I2
I-15
I-2
tp4115
tp4116
F0
s(I1
(I0
I-5
I2
tp4117
tp4118
F-99.99998825151151
s(I0
(I2
I-1
I3
tp4119
tp4120
F14.478109575453033
s(I0
(I6
I6
I-2
tp4121
tp4122
F0
s(I0
(I3
I6
I1
tp4123
tp4124
F-6.6220935529242659
s(I0
(I3
I-14
I1
tp4125
tp4126
F0
s(I0
g169
tp4127
F0
s(I1
g1789
tp4128
F-7.4789571742567205
s(I0
g2161
tp4129
F0
s(I0
(I6
I7
I-1
tp4130
tp4131
F0.40959904308020745
s(I1
g3500
tp4132
F-1.0239985680619659
s(I0
g3927
tp4133
F0
s(I1
(I10
I-2
I4
tp4134
tp4135
F0
s(I1
g4102
tp4136
F0
s(I0
g1072
tp4137
F0.40948592661017447
s(I0
(I5
I1
I0
tp4138
tp4139
F1.0241062974162622
s(I0
g449
tp4140
F0
s(I0
g2083
tp4141
F-5.7922103530554585
s(I0
g945
tp4142
F0
s(I0
(I4
I13
I3
tp4143
tp4144
F0
s(I0
g3373
tp4145
F0
s(I1
g3561
tp4146
F0
s(I1
(I10
I7
I0
tp4147
tp4148
F0
s(I1
g1407
tp4149
F0
s(I0
(I9
I-6
I4
tp4150
tp4151
F0
s(I0
g3391
tp4152
F-95.248146237428514
s(I0
g3984
tp4153
F-99.999992071759991
s(I0
g1987
tp4154
F0
s(I0
(I5
I-15
I1
tp4155
tp4156
F0
s(I0
(I3
I-3
I1
tp4157
tp4158
F6.3143389299299955
s(I1
g3996
tp4159
F6.4006330784731
s(I0
(I4
I-14
I0
tp4160
tp4161
F0
s(I1
(I4
I-9
I3
tp4162
tp4163
F0
s(I1
g1428
tp4164
F-99.99999928853417
s(I0
g2281
tp4165
F0
s(I0
(I5
I12
I4
tp4166
tp4167
F0
s(I0
g711
tp4168
F0.065267594990132377
s(I0
(I7
I-15
I4
tp4169
tp4170
F0
s(I0
(I9
I8
I2
tp4171
tp4172
F-95.010541307830962
s(I1
g3918
tp4173
F-15.999972908246807
s(I1
(I8
I9
I-1
tp4174
tp4175
F0.0655428550612564
s(I1
g4018
tp4176
F-99.999920957047664
s(I1
(I5
I5
I3
tp4177
tp4178
F1.0241073159833143
s(I0
g2247
tp4179
F2.5602646398745041
s(I0
(I4
I13
I-2
tp4180
tp4181
F0
s(I0
(I6
I3
I1
tp4182
tp4183
F0.40964278917015839
s(I1
g4160
tp4184
F0
s(I1
(I8
I14
I1
tp4185
tp4186
F0
s(I1
g1891
tp4187
F0
s(I1
(I6
I-13
I1
tp4188
tp4189
F0
s(I1
g3425
tp4190
F-99.999991859725398
s(I0
(I8
I6
I1
tp4191
tp4192
F0.064948728042204029
s(I1
(I9
I2
I-1
tp4193
tp4194
F0.026096656698113511
s(I0
g1473
tp4195
F0.40954003906052316
s(I1
g268
tp4196
F0.16382963384567409
s(I1
g3443
tp4197
F3.7307630265080808e-05
s(I0
(I4
I-3
I-1
tp4198
tp4199
F-2.3040210020383229
s(I0
g3041
tp4200
F0.15196260005411921
s(I1
(I-1
I4
I2
tp4201
tp4202
F5.1219550873826507e-05
s(I1
g4064
tp4203
F0
s(I1
g4182
tp4204
F0.40483424862842077
s(I1
g3925
tp4205
F0.026105043581722026
s(I1
(I0
I-1
I3
tp4206
tp4207
F100.01039682393848
s(I0
(I4
I15
I4
tp4208
tp4209
F0
s(I0
g964
tp4210
F-0.0086249957270547739
s(I1
(I6
I-8
I-2
tp4211
tp4212
F0
s(I0
(I9
I6
I4
tp4213
tp4214
F-99.998560624039186
s(I1
(I5
I16
I3
tp4215
tp4216
F0
s(I0
(I8
I6
I2
tp4217
tp4218
F-4.687573380369372
s(I0
(I8
I8
I1
tp4219
tp4220
F0.049560462770638858
s(I0
(I4
I-16
I3
tp4221
tp4222
F0
s(I1
(I0
I8
I4
tp4223
tp4224
F-99.999997570882414
s(I1
(I10
I-11
I1
tp4225
tp4226
F0
s(I1
(I-1
I11
I2
tp4227
tp4228
F0.00022611918093764502
s(I0
(I5
I14
I-2
tp4229
tp4230
F0
s(I1
g2499
tp4231
F0
s(I1
g3060
tp4232
F0
s(I1
(I2
I8
I1
tp4233
tp4234
F-15.999990192296394
s(I1
g2879
tp4235
F0
s(I1
(I3
I1
I-1
tp4236
tp4237
F6.3991853986323299
s(I1
(I7
I9
I-2
tp4238
tp4239
F0
s(I0
g1107
tp4240
F0
s(I0
(I4
I4
I0
tp4241
tp4242
F2.5046397833370397
s(I1
(I9
I-8
I1
tp4243
tp4244
F0.025380002260851946
s(I0
(I3
I-12
I1
tp4245
tp4246
F-6.3999961258540559
s(I1
g2333
tp4247
F0.025957381568595193
s(I0
(I3
I-9
I1
tp4248
tp4249
F5.7607246789835997
s(I0
(I3
I-11
I-1
tp4250
tp4251
F-95.410726210312774
s(I0
g3295
tp4252
F0
s(I1
(I0
I-13
I-1
tp4253
tp4254
F0
s(I1
(I9
I3
I1
tp4255
tp4256
F0.026215751358961335
s(I1
(I9
I10
I0
tp4257
tp4258
F0.024906289836731509
s(I0
g3508
tp4259
F-20.190018532268027
s(I1
g1568
tp4260
F1.0110361241801467
s(I1
(I0
I9
I3
tp4261
tp4262
F-99.9999655173783
s(I1
g2341
tp4263
F0
s(I1
g2918
tp4264
F0.00022287328102897988
s(I1
g2271
tp4265
F0.93184302344773018
s(I1
(I2
I-14
I-1
tp4266
tp4267
F0
s(I0
g3518
tp4268
F0
s(I0
(I7
I-11
I-2
tp4269
tp4270
F0
s(I1
g611
tp4271
F0
s(I1
g2885
tp4272
F-14.555918928477288
s(I1
g1592
tp4273
F0.40964286214040363
s(I1
(I1
I2
I3
tp4274
tp4275
F40.004190210003408
s(I0
g3110
tp4276
F0
s(I1
g2628
tp4277
F0
s(I0
g852
tp4278
F0
s(I0
g4110
tp4279
F16.001655094654502
s(I1
g1368
tp4280
F0
s(I1
(I10
I10
I0
tp4281
tp4282
F0
s(I1
g2177
tp4283
F0.16231532787423247
s(I1
(I8
I15
I1
tp4284
tp4285
F0
s(I1
g1624
tp4286
F0.15042194707763182
s(I0
g3692
tp4287
F0
s(I0
(I5
I-6
I1
tp4288
tp4289
F1.0234167138999204
s(I0
(I4
I10
I-1
tp4290
tp4291
F-2.55999333651057
s(I1
g4119
tp4292
F-15.847963385454594
s(I0
g1635
tp4293
F0.064165169969921665
s(I1
(I0
I-15
I4
tp4294
tp4295
F0
s(I0
g1690
tp4296
F0.1638352360810518
s(I1
(I0
I-2
I0
tp4297
tp4298
F-99.97623747664727
s(I1
(I8
I6
I4
tp4299
tp4300
F0.065542852054156692
s(I1
g3368
tp4301
F3.5908180026757725e-05
s(I1
(I4
I-5
I0
tp4302
tp4303
F-7.1666189116893406
s(I0
g3139
tp4304
F0
s(I1
(I2
I7
I3
tp4305
tp4306
F-15.999791716776871
s(I1
(I4
I-10
I1
tp4307
tp4308
F-4.3402778864557625
s(I0
g2200
tp4309
F-95.007611215751524
s(I0
g903
tp4310
F5.7943484495524693
s(I1
g1551
tp4311
F0
s(I1
(I6
I-5
I0
tp4312
tp4313
F0.28593512986913505
s(I0
g2300
tp4314
F0.11545001153831241
s(I0
(I0
I-11
I0
tp4315
tp4316
F-99.998560769700191
s(I0
(I10
I2
I-2
tp4317
tp4318
F0
s(I0
g1220
tp4319
F0
s(I0
g1449
tp4320
F0.14394678781923417
s(I1
g3740
tp4321
F-0.017382557596094611
s(I1
(I0
I13
I-2
tp4322
tp4323
F0
s(I1
(I-1
I13
I1
tp4324
tp4325
F0
s(I0
g3080
tp4326
F0
s(I1
(I6
I11
I0
tp4327
tp4328
F0
s(I0
g2227
tp4329
F0
s(I1
(I-1
I-8
I-1
tp4330
tp4331
F-95.018943039731184
s(I0
(I7
I-15
I1
tp4332
tp4333
F0
s(I0
g3584
tp4334
F0.37911868767540691
s(I0
g4312
tp4335
F0.37915261134529038
s(I0
g836
tp4336
F0
s(I0
(I0
I-10
I0
tp4337
tp4338
F-99.999949371903966
s(I0
g2595
tp4339
F0.9441876889744012
s(I1
(I6
I-1
I0
tp4340
tp4341
F0.34783301480295953
s(I0
g2304
tp4342
F2.7922159763489067e-05
s(I0
g2772
tp4343
F-15.999997274356433
s(I1
(I4
I-14
I3
tp4344
tp4345
F0
s(I1
(I7
I-6
I-1
tp4346
tp4347
F-0.1340867308463016
s(I0
g3021
tp4348
F0
s(I1
(I0
I-10
I3
tp4349
tp4350
F0
s(I1
g482
tp4351
F0
s(I0
(I8
I3
I0
tp4352
tp4353
F0.065540694058310034
s(I1
g3198
tp4354
F0
s(I1
(I9
I6
I3
tp4355
tp4356
F0.026217116302336637
s(I1
g4198
tp4357
F-2.0726264692250012
s(I1
(I2
I-16
I2
tp4358
tp4359
F0
s(I0
g4201
tp4360
F0.00010386377541885267
s(I0
g1485
tp4361
F0.16382514585468722
s(I1
g3046
tp4362
F-99.99979173009875
s(I0
(I10
I-13
I-1
tp4363
tp4364
F0
s(I0
(I7
I13
I4
tp4365
tp4366
F0
s(I1
g1498
tp4367
F0
s(I0
(I8
I3
I-1
tp4368
tp4369
F0.065528300613101845
s(I1
(I5
I5
I-2
tp4370
tp4371
F0
s(I1
(I7
I-16
I-1
tp4372
tp4373
F0
s(I0
(I2
I16
I-2
tp4374
tp4375
F0
s(I0
g3221
tp4376
F0
s(I0
(I3
I3
I3
tp4377
tp4378
F-6.6228001349824757
s(I0
(I0
I-16
I2
tp4379
tp4380
F0
s(I0
(I1
I-11
I0
tp4381
tp4382
F-39.999972783560281
s(I1
(I2
I-12
I4
tp4383
tp4384
F0
s(I0
(I-1
I-7
I3
tp4385
tp4386
F0
s(I1
g1647
tp4387
F0
s(I1
(I-1
I16
I-2
tp4388
tp4389
F0
s(I1
(I1
I12
I3
tp4390
tp4391
F0
s(I0
(I5
I-12
I2
tp4392
tp4393
F0
s(I0
g1684
tp4394
F0
s(I0
g2306
tp4395
F0
s(I0
g4236
tp4396
F5.8242724530362535
s(I0
(I1
I-9
I-2
tp4397
tp4398
F0
s(I0
g1729
tp4399
F0.0030207668246196168
s(I1
g4381
tp4400
F-42.999718582771514
s(I0
g119
tp4401
F-11.8582238501099
s(I1
g3571
tp4402
F0.4031180680392516
s(I1
(I5
I3
I0
tp4403
tp4404
F1.0241070148863576
s(I1
(I2
I-8
I4
tp4405
tp4406
F0
s(I0
(I1
I10
I0
tp4407
tp4408
F-39.899217771531447
s(I0
(I9
I1
I1
tp4409
tp4410
F0.024374683610207976
s(I0
(I4
I-4
I1
tp4411
tp4412
F1.7234016817605382
s(I1
(I1
I-12
I2
tp4413
tp4414
F0
s(I0
g1019
tp4415
F0
s(I1
(I8
I-4
I-1
tp4416
tp4417
F-0.075877573450974373
s(I1
(I8
I-11
I-2
tp4418
tp4419
F0
s(I0
(I10
I-8
I1
tp4420
tp4421
F0
s(I0
g220
tp4422
F0
s(I0
(I1
I-14
I-1
tp4423
tp4424
F0
s(I1
g1782
tp4425
F0
s(I0
(I7
I-5
I1
tp4426
tp4427
F0.10556515985873274
s(I0
g1344
tp4428
F-2.5599948727860506
s(I0
g1299
tp4429
F0
s(I0
g3098
tp4430
F0
s(I0
g3661
tp4431
F0
s(I0
(I0
I-10
I2
tp4432
tp4433
F0
s(I1
(I8
I7
I-1
tp4434
tp4435
F0.065542849949402002
s(I0
(I10
I12
I1
tp4436
tp4437
F0
s(I0
(I5
I-1
I0
tp4438
tp4439
F1.0239035915177253
s(I0
(I1
I7
I0
tp4440
tp4441
F-39.999970033572822
s(I1
g1420
tp4442
F0
s(I0
(I6
I1
I0
tp4443
tp4444
F0.40806154894130642
s(I1
g3196
tp4445
F0
s(I0
g3775
tp4446
F-0.27080803823650157
s(I0
g244
tp4447
F0
s(I0
g1814
tp4448
F0.39054447335416431
s(I0
(I4
I0
I1
tp4449
tp4450
F2.5597421835563692
s(I1
g1866
tp4451
F-99.999916316244267
s(I0
g1119
tp4452
F-1.0239860735376891
s(I0
(I3
I-7
I-2
tp4453
tp4454
F0
s(I1
g2549
tp4455
F-0.0144217344799571
s(I0
(I4
I-7
I3
tp4456
tp4457
F0
s(I1
g2294
tp4458
F0
s(I1
g136
tp4459
F-2.9747916204887428
s(I1
g71
tp4460
F0
s(I1
(I6
I-9
I4
tp4461
tp4462
F0
s(I0
(I5
I0
I0
tp4463
tp4464
F1.0194704615077688
s(I1
(I9
I9
I-1
tp4465
tp4466
F0.02621714617496046
s(I0
(I8
I9
I3
tp4467
tp4468
F-99.999994763965617
s(I0
(I6
I-2
I2
tp4469
tp4470
F0.40778624435959465
s(I0
g1862
tp4471
F0
s(I0
(I3
I4
I-1
tp4472
tp4473
F5.7900107654241655
s(I0
(I5
I1
I3
tp4474
tp4475
F-4.0144718239784822
s(I1
g2376
tp4476
F-5.7836899160217143
s(I1
g101
tp4477
F-6.5338065128454588
s(I1
g893
tp4478
F0
s(I1
g41
tp4479
F0
s(I1
g2447
tp4480
F0
s(I1
(I4
I-10
I0
tp4481
tp4482
F-36.696578565508112
s(I1
(I7
I-4
I-1
tp4483
tp4484
F-36.089035469379702
s(I0
(I6
I2
I-2
tp4485
tp4486
F0
s(I1
g1366
tp4487
F0
s(I1
g4290
tp4488
F-2.5599923237630096
s(I0
(I10
I2
I3
tp4489
tp4490
F0
s(I0
g3903
tp4491
F-0.014833671989430343
s(I1
(I3
I-2
I-2
tp4492
tp4493
F0
s(I0
g95
tp4494
F0
s(I0
g3327
tp4495
F-99.999987011865272
s(I1
g2393
tp4496
F0
s(I1
(I8
I1
I4
tp4497
tp4498
F0.065497348554136137
s(I1
(I0
I-14
I1
tp4499
tp4500
F0
s(I1
g2504
tp4501
F1.0241069627747799
s(I0
(I3
I-14
I2
tp4502
tp4503
F0
s(I0
(I1
I-16
I-2
tp4504
tp4505
F0
s(I0
g3566
tp4506
F-6.3999906575595986
s(I1
(I9
I13
I-1
tp4507
tp4508
F0
s(I0
(I4
I-13
I1
tp4509
tp4510
F0
s(I0
(I0
I16
I4
tp4511
tp4512
F0
s(I0
g4344
tp4513
F0
s(I1
(I4
I-15
I1
tp4514
tp4515
F0
s(I1
(I10
I-16
I-2
tp4516
tp4517
F0
s(I0
(I5
I-3
I4
tp4518
tp4519
F0
s(I1
g4485
tp4520
F0
s(I1
g3942
tp4521
F0.40964290945526549
s(I1
g3361
tp4522
F-15.999709618252375
s(I0
g2584
tp4523
F0
s(I0
(I2
I-16
I-2
tp4524
tp4525
F0
s(I0
(I5
I4
I2
tp4526
tp4527
F0.77193222597186362
s(I0
(I-1
I-16
I1
tp4528
tp4529
F0
s(I1
g3354
tp4530
F-0.31114928131024067
s(I1
g2045
tp4531
F0
s(I0
g1698
tp4532
F0.16354147204196468
s(I0
g2429
tp4533
F-99.767870470506026
s(I1
g651
tp4534
F0.0099633072529492616
s(I1
(I6
I-14
I-1
tp4535
tp4536
F0
s(I1
g3283
tp4537
F1.3235359594462549e-05
s(I1
g4518
tp4538
F0
s(I1
g1947
tp4539
F0
s(I1
g2443
tp4540
F0.40964266004747041
s(I0
g3186
tp4541
F-99.999997109302001
s(I0
(I0
I-1
I4
tp4542
tp4543
F0
s(I0
g178
tp4544
F0
s(I1
g2862
tp4545
F0
s(I1
g1330
tp4546
F0
s(I1
g4029
tp4547
F-14.479717138354342
s(I1
(I3
I-10
I-2
tp4548
tp4549
F0
s(I0
g3975
tp4550
F0
s(I1
(I1
I1
I-1
tp4551
tp4552
F40.004193127913588
s(I0
g134
tp4553
F1.0190026094917621
s(I0
(I7
I-12
I2
tp4554
tp4555
F0
s(I1
g1779
tp4556
F3.8985526424598527e-06
s(I1
g2570
tp4557
F0
s(I1
g3802
tp4558
F0
s(I1
(I2
I-11
I2
tp4559
tp4560
F0
s(I1
g1738
tp4561
F0
s(I1
(I8
I0
I-1
tp4562
tp4563
F0.064715837550274866
s(I0
g527
tp4564
F0
s(I0
(I3
I13
I-1
tp4565
tp4566
F0
s(I0
(I4
I-16
I2
tp4567
tp4568
F0
s(I0
(I3
I10
I-2
tp4569
tp4570
F0
s(I0
g3955
tp4571
F-99.999421945455694
s(I0
(I-1
I5
I-1
tp4572
tp4573
F1.8775237395015855e-05
s(I1
(I-1
I14
I-1
tp4574
tp4575
F0
s(I1
(I-1
I-16
I0
tp4576
tp4577
F0
s(I0
g503
tp4578
F0.40964259714119805
s(I1
(I2
I6
I2
tp4579
tp4580
F-15.999992762884514
s(I0
g2727
tp4581
F0
s(I1
g3806
tp4582
F-0.059057834122151473
s(I1
g864
tp4583
F0
s(I0
(I4
I0
I2
tp4584
tp4585
F2.5602680435818725
s(I0
(I3
I-12
I2
tp4586
tp4587
F0
s(I1
g3261
tp4588
F0
s(I1
(I3
I7
I-2
tp4589
tp4590
F0
s(I1
g1839
tp4591
F0
s(I0
(I7
I0
I-2
tp4592
tp4593
F0
s(I1
g1924
tp4594
F-99.999839137795192
s(I1
(I0
I4
I-2
tp4595
tp4596
F0
s(I1
(I6
I-6
I0
tp4597
tp4598
F-0.40780352853541474
s(I1
(I8
I-13
I-1
tp4599
tp4600
F0
s(I1
(I10
I13
I1
tp4601
tp4602
F0
s(I1
(I8
I14
I2
tp4603
tp4604
F0
s(I1
(I10
I0
I-1
tp4605
tp4606
F0
s(I0
g1168
tp4607
F0
s(I0
g383
tp4608
F0
s(I0
g3651
tp4609
F0
s(I0
g1297
tp4610
F0
s(I1
(I10
I-15
I2
tp4611
tp4612
F0
s(I0
g1801
tp4613
F-99.999960559001963
s(I1
g3370
tp4614
F0
s(I0
g3838
tp4615
F0.32167943232585894
s(I1
g3461
tp4616
F2.5602602832890269
s(I1
(I10
I-5
I-1
tp4617
tp4618
F0
s(I1
g1703
tp4619
F40.004184842833602
s(I0
(I1
I-8
I1
tp4620
tp4621
F-39.999986396565497
s(I1
(I7
I-13
I4
tp4622
tp4623
F0
s(I0
(I2
I-15
I-1
tp4624
tp4625
F0
s(I1
(I5
I-2
I3
tp4626
tp4627
F1.01000770532003
s(I0
g3407
tp4628
F0
s(I1
(I10
I2
I4
tp4629
tp4630
F0
s(I0
(I8
I-15
I-2
tp4631
tp4632
F0
s(I1
g4086
tp4633
F0
s(I1
(I2
I-13
I-2
tp4634
tp4635
F0
s(I0
(I1
I-11
I3
tp4636
tp4637
F0
s(I0
g3813
tp4638
F0
s(I1
g3459
tp4639
F0
s(I1
(I2
I11
I2
tp4640
tp4641
F-15.999998332917073
s(I1
g1317
tp4642
F0
s(I0
(I5
I1
I4
tp4643
tp4644
F-99.999964792588059
s(I0
(I6
I-11
I0
tp4645
tp4646
F0.40287136365561987
s(I0
g2952
tp4647
F0.00012708907599995615
s(I0
(I10
I-2
I-1
tp4648
tp4649
F0
s(I0
g4002
tp4650
F0
s(I0
g3414
tp4651
F-95.140148983550887
s(I1
(I3
I-1
I2
tp4652
tp4653
F-6.3955265701982889
s(I0
(I0
I-11
I1
tp4654
tp4655
F-99.998570001377971
s(I1
(I5
I-16
I1
tp4656
tp4657
F0
s(I0
g3687
tp4658
F0
s(I1
g3333
tp4659
F0
s(I1
g381
tp4660
F0
s(I1
(I1
I-2
I1
tp4661
tp4662
F-39.999967569636226
s(I1
(I4
I-15
I2
tp4663
tp4664
F0
s(I0
(I4
I-14
I4
tp4665
tp4666
F0
s(I0
g2827
tp4667
F0
s(I0
(I5
I-3
I1
tp4668
tp4669
F1.0236877604204442
s(I1
(I-1
I5
I2
tp4670
tp4671
F7.9997188396708769e-05
s(I1
g302
tp4672
F-15.999776348354512
s(I1
g2638
tp4673
F0
s(I0
(I-1
I-7
I1
tp4674
tp4675
F1.2147830535193927e-05
s(I1
g4654
tp4676
F-99.999996022259495
s(I1
(I3
I-11
I1
tp4677
tp4678
F-12.453339367761885
s(I0
(I9
I13
I1
tp4679
tp4680
F0
s(I0
g2853
tp4681
F-99.99998526783061
s(I0
(I7
I12
I-2
tp4682
tp4683
F0
s(I0
(I10
I-7
I-1
tp4684
tp4685
F0
s(I1
g4096
tp4686
F0
s(I0
(I3
I8
I-1
tp4687
tp4688
F-6.3999865494481041
s(I0
(I1
I13
I0
tp4689
tp4690
F0
s(I1
g4665
tp4691
F0
s(I1
(I9
I2
I0
tp4692
tp4693
F0.026186731479943305
s(I1
g2237
tp4694
F0
s(I0
(I9
I3
I-2
tp4695
tp4696
F0
s(I0
(I4
I-16
I4
tp4697
tp4698
F0
s(I1
(I7
I5
I3
tp4699
tp4700
F0.16385691885893042
s(I1
(I7
I11
I-1
tp4701
tp4702
F0
s(I0
g3482
tp4703
F-99.99993394435522
s(I1
g4689
tp4704
F0
s(I0
(I2
I8
I2
tp4705
tp4706
F-99.800498445442571
s(I1
(I6
I-16
I2
tp4707
tp4708
F0
s(I1
g2208
tp4709
F0
s(I0
g4322
tp4710
F0
s(I0
(I4
I-15
I-1
tp4711
tp4712
F0
s(I1
(I8
I-11
I-1
tp4713
tp4714
F-99.999301414160911
s(I1
g1195
tp4715
F0
s(I0
(I3
I-3
I4
tp4716
tp4717
F0
s(I0
(I5
I4
I0
tp4718
tp4719
F1.0241065147260815
s(I0
(I0
I-13
I2
tp4720
tp4721
F0
s(I0
g2013
tp4722
F0
s(I0
g4185
tp4723
F0
s(I1
(I5
I4
I1
tp4724
tp4725
F1.0241062913027377
s(I1
g2999
tp4726
F0.11945052262717701
s(I0
g4211
tp4727
F0
s(I1
(I1
I-11
I1
tp4728
tp4729
F-97.142496092884983
s(I0
g1399
tp4730
F-99.999995059907562
s(I1
g4022
tp4731
F-1.8627480443476305
s(I1
g1229
tp4732
F0
s(I1
g3969
tp4733
F16.001664781204589
s(I1
g490
tp4734
F-99.976095946146486
s(I0
g3828
tp4735
F0
s(I0
g2780
tp4736
F0
s(I0
(I1
I-3
I1
tp4737
tp4738
F40.004194515613165
s(I0
g2864
tp4739
F16.001667766201351
s(I0
g4579
tp4740
F-20.199986279758349
s(I1
g4463
tp4741
F0.84361961750350711
s(I0
g4661
tp4742
F40.004191509482844
s(I0
(I-1
I-9
I2
tp4743
tp4744
F0.00069558636535215629
s(I0
(I4
I15
I0
tp4745
tp4746
F0
s(I1
g2733
tp4747
F0
s(I0
g2047
tp4748
F16.001435331575898
s(I1
(I2
I14
I1
tp4749
tp4750
F0
s(I0
(I6
I16
I-1
tp4751
tp4752
F0
s(I1
(I8
I-12
I3
tp4753
tp4754
F0
s(I0
(I3
I11
I-1
tp4755
tp4756
F0
s(I0
(I0
I-3
I4
tp4757
tp4758
F0
s(I0
(I7
I-8
I2
tp4759
tp4760
F-0.08963414187954416
s(I0
g3609
tp4761
F0
s(I1
(I6
I-11
I1
tp4762
tp4763
F-95.351048979001234
s(I1
(I-1
I14
I-2
tp4764
tp4765
F0
s(I1
g2063
tp4766
F0.055003162374666695
s(I0
g3916
tp4767
F0
s(I1
g3549
tp4768
F0
s(I1
g4250
tp4769
F-99.853688706051202
s(I1
g1185
tp4770
F-99.999891477341691
s(I1
(I9
I-13
I4
tp4771
tp4772
F0
s(I1
(I4
I4
I3
tp4773
tp4774
F2.5602682264951335
s(I0
g2869
tp4775
F-95.019032353254502
s(I0
(I8
I0
I0
tp4776
tp4777
F0.06545107310292371
s(I0
g3182
tp4778
F0
s(I0
g2087
tp4779
F0
s(I1
g1418
tp4780
F0.035411621948379698
s(I1
(I9
I14
I-2
tp4781
tp4782
F0
s(I1
g3849
tp4783
F0
s(I0
(I4
I9
I-1
tp4784
tp4785
F-2.5599967948084923
s(I1
(I2
I12
I1
tp4786
tp4787
F0
s(I0
g923
tp4788
F-15.927943391493184
s(I0
(I8
I-11
I3
tp4789
tp4790
F0
s(I0
g2112
tp4791
F0
s(I1
g4208
tp4792
F0
s(I0
(I7
I-12
I-1
tp4793
tp4794
F0.15828591679674586
s(I0
(I9
I2
I4
tp4795
tp4796
F-99.999967724161422
s(I1
g2940
tp4797
F0
s(I1
g4219
tp4798
F0.065542863617018929
s(I1
g1969
tp4799
F0
s(I1
(I9
I-14
I3
tp4800
tp4801
F0
s(I0
g2897
tp4802
F0
s(I1
(I0
I3
I-1
tp4803
tp4804
F-99.999915438572657
s(I0
g3492
tp4805
F0
s(I0
(I0
I-4
I0
tp4806
tp4807
F-99.999970459606573
s(I1
(I7
I-15
I3
tp4808
tp4809
F0
s(I0
(I8
I-16
I2
tp4810
tp4811
F0
s(I1
g2981
tp4812
F0
s(I1
(I1
I4
I-1
tp4813
tp4814
F-39.999997020484521
s(I0
g4073
tp4815
F16.001634292576068
s(I0
g300
tp4816
F0
s(I0
(I5
I-9
I2
tp4817
tp4818
F0
s(I0
g3510
tp4819
F0
s(I1
g1346
tp4820
F0
s(I0
(I7
I1
I4
tp4821
tp4822
F-99.999992003894064
s(I1
g4229
tp4823
F0
s(I1
(I0
I11
I0
tp4824
tp4825
F0
s(I1
(I5
I-10
I1
tp4826
tp4827
F-15.807407853100255
s(I1
(I8
I1
I2
tp4828
tp4829
F0.064698510551182475
s(I0
(I0
I-5
I0
tp4830
tp4831
F-99.999913850250479
s(I1
g3674
tp4832
F0.40963332183402601
s(I0
g1044
tp4833
F16.00116590495394
s(I1
(I7
I-14
I2
tp4834
tp4835
F0
s(I1
g4810
tp4836
F0
s(I0
(I10
I-9
I2
tp4837
tp4838
F0
s(I0
(I-1
I-2
I2
tp4839
tp4840
F3.4468216826732373e-06
s(I0
(I8
I6
I3
tp4841
tp4842
F-95.25220822306953
s(I1
(I6
I-1
I3
tp4843
tp4844
F0.37374040873553122
s(I0
(I6
I-16
I3
tp4845
tp4846
F0
s(I0
(I5
I4
I3
tp4847
tp4848
F-1.0323831840615725
s(I1
(I2
I9
I4
tp4849
tp4850
F-15.999967099059363
s(I1
(I5
I-15
I2
tp4851
tp4852
F0
s(I1
(I2
I7
I-2
tp4853
tp4854
F0
s(I0
g3579
tp4855
F0
s(I0
(I4
I-9
I-1
tp4856
tp4857
F-2.6754770209360523
s(I1
(I1
I-3
I4
tp4858
tp4859
F0
s(I0
(I5
I-14
I2
tp4860
tp4861
F0
s(I0
g3938
tp4862
F-42.849956192477585
s(I0
(I2
I-14
I0
tp4863
tp4864
F0
s(I1
g4684
tp4865
F0
s(I1
g4150
tp4866
F0
s(I0
(I9
I7
I2
tp4867
tp4868
F-0.24934889393442372
s(I1
(I7
I-7
I1
tp4869
tp4870
F-95.129657933985115
s(I1
g2189
tp4871
F0
s(I1
g4155
tp4872
F0
s(I1
(I-1
I-7
I-2
tp4873
tp4874
F0
s(I0
(I5
I1
I-1
tp4875
tp4876
F1.0069617137023052
s(I0
(I4
I-16
I1
tp4877
tp4878
F0
s(I0
g4162
tp4879
F0
s(I0
g1144
tp4880
F-39.99997784094424
s(I1
g1213
tp4881
F-39.999992597178469
s(I1
g1663
tp4882
F0
s(I1
(I6
I-10
I1
tp4883
tp4884
F-1.2024500065223696
s(I1
(I8
I-12
I-2
tp4885
tp4886
F0
s(I0
(I2
I6
I3
tp4887
tp4888
F-99.989870716217922
s(I1
g4867
tp4889
F0.026217133090832179
s(I1
g1670
tp4890
F0
s(I0
(I5
I-13
I-1
tp4891
tp4892
F0
s(I1
g218
tp4893
F0
s(I1
(I3
I9
I3
tp4894
tp4895
F-6.399966971628694
s(I0
g1759
tp4896
F-99.999992271208058
s(I1
g4572
tp4897
F0.0099569204377601365
s(I0
g1280
tp4898
F0.40778521793007033
s(I0
g2218
tp4899
F-7.4319949503631761
s(I0
g3653
tp4900
F-99.999905047607783
s(I0
(I3
I3
I-1
tp4901
tp4902
F6.400491680035544
s(I1
g2701
tp4903
F-99.999963646900412
s(I1
g2195
tp4904
F-0.87004635865535096
s(I1
(I9
I7
I0
tp4905
tp4906
F0.026217141764914815
s(I0
(I2
I6
I0
tp4907
tp4908
F-15.999968099865587
s(I1
(I5
I-8
I2
tp4909
tp4910
F-14.217741517901029
s(I1
g3588
tp4911
F0
s(I0
g2001
tp4912
F40.002152788212172
s(I0
(I6
I-12
I1
tp4913
tp4914
F-0.23757605235647114
s(I0
(I1
I5
I-1
tp4915
tp4916
F-39.999996868762906
s(I1
g3108
tp4917
F0
s(I0
g256
tp4918
F0
s(I0
(I2
I-6
I2
tp4919
tp4920
F16.001673985252843
s(I1
g3603
tp4921
F0.019434105938792898
s(I1
(I2
I12
I-1
tp4922
tp4923
F0
s(I1
(I1
I-9
I0
tp4924
tp4925
F-42.84996850785938
s(I1
g2468
tp4926
F0.05823534945291866
s(I1
(I8
I8
I0
tp4927
tp4928
F0.065542831884462055
s(I0
g2114
tp4929
F2.1513692051682884
s(I0
g1278
tp4930
F0
s(I1
(I8
I5
I4
tp4931
tp4932
F0.065473864771611476
s(I1
g4789
tp4933
F0
s(I1
(I3
I-6
I2
tp4934
tp4935
F-6.4050061413978376
s(I1
(I8
I-9
I3
tp4936
tp4937
F0
s(I0
g3795
tp4938
F-99.999985303457919
s(I0
(I-1
I-9
I1
tp4939
tp4940
F0.00011452592036650692
s(I1
g4806
tp4941
F-99.999963674085421
s(I0
(I3
I-13
I0
tp4942
tp4943
F0
s(I1
g2741
tp4944
F0.026217147111738715
s(I0
g3632
tp4945
F0
s(I0
g364
tp4946
F0.16257685492754886
s(I1
(I5
I12
I0
tp4947
tp4948
F0
s(I0
(I3
I-14
I-1
tp4949
tp4950
F0
s(I1
g1170
tp4951
F0
s(I1
g3306
tp4952
F0
s(I0
(I4
I16
I0
tp4953
tp4954
F0
s(I1
(I1
I7
I-2
tp4955
tp4956
F0
s(I1
(I5
I4
I-1
tp4957
tp4958
F1.0240938751652222
s(I0
(I8
I-1
I1
tp4959
tp4960
F0.063727398571661514
s(I1
(I9
I8
I3
tp4961
tp4962
F0.026217142842514137
s(I1
g4939
tp4963
F-0.43484790468519074
s(I0
(I0
I5
I-2
tp4964
tp4965
F0
s(I1
g1559
tp4966
F0
s(I0
(I9
I1
I4
tp4967
tp4968
F-99.999375003909819
s(I1
(I2
I3
I-2
tp4969
tp4970
F0
s(I0
(I1
I-4
I2
tp4971
tp4972
F40.004194704792013
s(I0
(I5
I13
I3
tp4973
tp4974
F0
s(I1
g2391
tp4975
F9.076710965817132e-07
s(I1
(I4
I8
I1
tp4976
tp4977
F-2.5599930323562083
s(I1
(I0
I12
I-2
tp4978
tp4979
F0
s(I0
(I9
I-16
I-2
tp4980
tp4981
F0
s(I1
g1785
tp4982
F0
s(I0
(I1
I-5
I1
tp4983
tp4984
F32.212847735661036
s(I0
(I2
I-7
I1
tp4985
tp4986
F-15.999794876162021
s(I1
g3730
tp4987
F0
s(I1
(I1
I-14
I-2
tp4988
tp4989
F0
s(I1
(I7
I-14
I3
tp4990
tp4991
F0
s(I1
g4967
tp4992
F0.026210734015847524
s(I0
g3342
tp4993
F-6.0647967565634326
s(I0
g3335
tp4994
F-5.5672195318035023
s(I1
(I8
I15
I-2
tp4995
tp4996
F0
s(I1
g4469
tp4997
F0.36524264777167481
s(I0
(I7
I-3
I0
tp4998
tp4999
F0.16322143141774414
s(I1
g4565
tp5000
F0
s(I1
(I7
I10
I2
tp5001
tp5002
F-0.13720787101149243
s(I1
g11
tp5003
F-0.44426602162852258
s(I0
g1617
tp5004
F0
s(I1
(I2
I-7
I4
tp5005
tp5006
F0
s(I0
(I2
I13
I2
tp5007
tp5008
F0
s(I1
g3121
tp5009
F0
s(I1
(I7
I5
I4
tp5010
tp5011
F0.16385633719698023
s(I1
g1850
tp5012
F0.40964289760465167
s(I0
(I5
I-10
I-2
tp5013
tp5014
F0
s(I0
g4617
tp5015
F0
s(I1
g3702
tp5016
F0.36700124973355103
s(I0
g4499
tp5017
F0
s(I1
(I5
I5
I-1
tp5018
tp5019
F1.0241072622030472
s(I1
(I10
I14
I2
tp5020
tp5021
F0
s(I1
g4784
tp5022
F-2.5599978680153685
s(I1
(I1
I-6
I4
tp5023
tp5024
F0
s(I0
g4324
tp5025
F0
s(I0
(I0
I9
I1
tp5026
tp5027
F-99.999746055179813
s(I1
(I2
I-4
I-1
tp5028
tp5029
F-95.800494017048919
s(I0
g3823
tp5030
F0
s(I0
(I4
I12
I4
tp5031
tp5032
F0
s(I1
(I-1
I15
I1
tp5033
tp5034
F0
s(I1
(I9
I16
I-2
tp5035
tp5036
F0
s(I0
(I8
I3
I4
tp5037
tp5038
F-99.999988849512178
s(I1
g2399
tp5039
F-0.018249543766699849
s(I1
g3725
tp5040
F0
s(I0
g4266
tp5041
F0
s(I1
g3277
tp5042
F0
s(I0
g2409
tp5043
F0
s(I0
(I1
I-3
I0
tp5044
tp5045
F39.81368057991137
s(I0
(I1
I-2
I0
tp5046
tp5047
F40.004193733767423
s(I0
g3932
tp5048
F0
s(I0
g3263
tp5049
F0
s(I0
g2739
tp5050
F0
s(I1
g3945
tp5051
F0
s(I1
(I8
I-13
I2
tp5052
tp5053
F0
s(I0
g3754
tp5054
F0
s(I0
g111
tp5055
F0
s(I0
(I8
I-6
I2
tp5056
tp5057
F0.065276216577878243
s(I1
(I2
I-16
I-1
tp5058
tp5059
F0
s(I1
(I6
I12
I-1
tp5060
tp5061
F0
s(I1
g2662
tp5062
F0
s(I1
(I4
I-6
I-2
tp5063
tp5064
F0
s(I1
g284
tp5065
F6.2214584450560889e-05
s(I0
g2225
tp5066
F6.4006602734896925
s(I1
g3190
tp5067
F0
s(I1
g4438
tp5068
F-0.90531864179455535
s(I1
g828
tp5069
F0
s(I0
g140
tp5070
F5.8244058912730434
s(I0
(I8
I-1
I3
tp5071
tp5072
F0.060844623944061593
s(I1
g968
tp5073
F-99.999989083996994
s(I1
g662
tp5074
F0
s(I1
(I10
I-1
I4
tp5075
tp5076
F0
s(I1
(I3
I9
I-1
tp5077
tp5078
F-6.3999964632204058
s(I1
g3124
tp5079
F0.026098161879281261
s(I1
(I4
I-8
I2
tp5080
tp5081
F-2.6236780792823384
s(I1
(I-1
I-13
I1
tp5082
tp5083
F0
s(I1
g4392
tp5084
F0
s(I0
g4227
tp5085
F-99.99999769496722
s(I0
(I0
I-1
I-1
tp5086
tp5087
F100.01044595709791
s(I1
g929
tp5088
F0
s(I0
g21
tp5089
F0
s(I1
g4584
tp5090
F2.5591623351240234
s(I1
g29
tp5091
F0
s(I0
g2007
tp5092
F-99.999996747838068
s(I0
(I6
I4
I4
tp5093
tp5094
F-99.999993580511955
s(I0
g3400
tp5095
F0
s(I1
(I7
I-10
I2
tp5096
tp5097
F0
s(I0
(I10
I-16
I2
tp5098
tp5099
F0
s(I0
g4843
tp5100
F0.40964217963201227
s(I0
(I3
I12
I-2
tp5101
tp5102
F0
s(I1
g3835
tp5103
F2.5602667401539216
s(I0
g4978
tp5104
F0
s(I0
g1834
tp5105
F0
s(I0
g4032
tp5106
F0
s(I1
g979
tp5107
F0.064387473365663764
s(I1
(I6
I7
I2
tp5108
tp5109
F0.40964285488812957
s(I0
g2346
tp5110
F0
s(I1
(I8
I-15
I-1
tp5111
tp5112
F0
s(I1
(I1
I9
I-2
tp5113
tp5114
F0
s(I0
g77
tp5115
F-99.762492202695014
s(I0
(I0
I12
I0
tp5116
tp5117
F0
s(I0
(I8
I5
I2
tp5118
tp5119
F-94.995123915870082
s(I0
(I2
I-4
I4
tp5120
tp5121
F0
s(I0
g1962
tp5122
F0.15167358461962588
s(I1
g4217
tp5123
F0.065542855121158761
s(I0
g2541
tp5124
F-99.999931101237095
s(I0
(I8
I-14
I3
tp5125
tp5126
F0
s(I1
g2692
tp5127
F0
s(I1
(I4
I16
I-1
tp5128
tp5129
F0
s(I1
g2094
tp5130
F0
s(I0
(I8
I7
I-2
tp5131
tp5132
F0
s(I0
g5035
tp5133
F0
s(I0
g643
tp5134
F-99.999927246939905
s(I0
g1819
tp5135
F0
s(I0
g2618
tp5136
F0
s(I1
g2774
tp5137
F0
s(I0
g4589
tp5138
F0
s(I0
g4302
tp5139
F2.5557934704236853
s(I1
g2329
tp5140
F0
s(I0
(I1
I13
I4
tp5141
tp5142
F0
s(I1
(I-1
I7
I0
tp5143
tp5144
F1.4619356974245433e-05
s(I1
g2789
tp5145
F1.0241071005354661
s(I1
(I9
I0
I3
tp5146
tp5147
F0.021829785724574991
s(I1
g1692
tp5148
F0
s(I1
(I3
I6
I2
tp5149
tp5150
F-5.2390848072129845
s(I1
(I9
I-14
I-1
tp5151
tp5152
F0
s(I0
g2961
tp5153
F-99.999891507414773
s(I1
(I6
I-13
I4
tp5154
tp5155
F0
s(I1
g1876
tp5156
F-99.779586866495691
s(I1
(I3
I9
I4
tp5157
tp5158
F-6.3999842370609077
s(I1
g2688
tp5159
F0
s(I1
g1887
tp5160
F0
s(I1
g4106
tp5161
F0
s(I0
g5108
tp5162
F-0.65843080665596432
s(I1
g4025
tp5163
F0
s(I1
g2425
tp5164
F0
s(I1
(I6
I-6
I1
tp5165
tp5166
F0.25023620492594623
s(I0
(I8
I3
I3
tp5167
tp5168
F-4.9258201871931249
s(I1
g4526
tp5169
F1.0241067963970774
s(I1
g2615
tp5170
F0
s(I1
(I8
I14
I3
tp5171
tp5172
F0
s(I0
(I5
I0
I-2
tp5173
tp5174
F0
s(I0
(I7
I-15
I2
tp5175
tp5176
F0
s(I0
g1956
tp5177
F-0.34140189472557064
s(I1
(I9
I1
I-2
tp5178
tp5179
F0
s(I1
g330
tp5180
F0
s(I1
g1904
tp5181
F0.16385684900611189
s(I1
(I1
I-15
I-2
tp5182
tp5183
F0
s(I0
(I5
I-11
I0
tp5184
tp5185
F-0.91723689393664898
s(I1
(I2
I-5
I2
tp5186
tp5187
F-15.999993892836047
s(I0
g3433
tp5188
F-39.999926696019834
s(I1
g3385
tp5189
F0.16385423259645357
s(I1
g1917
tp5190
F0.021385004616219911
s(I1
(I1
I-16
I1
tp5191
tp5192
F0
s(I1
(I1
I-15
I-1
tp5193
tp5194
F0
s(I0
g4346
tp5195
F-0.3781283895632036
s(I1
(I2
I2
I0
tp5196
tp5197
F16.001664320563016
s(I0
(I6
I-9
I2
tp5198
tp5199
F0.4095380603845945
s(I1
(I7
I-5
I-1
tp5200
tp5201
F-95.00523207846301
s(I1
(I8
I7
I1
tp5202
tp5203
F0.065542854610409651
s(I1
g1236
tp5204
F-1.0357377895245679
s(I0
g2855
tp5205
F100.0104803238639
s(I1
(I4
I-13
I4
tp5206
tp5207
F0
s(I0
(I9
I12
I3
tp5208
tp5209
F0
s(I1
g2057
tp5210
F0
s(I1
g4058
tp5211
F0.060381396334880516
s(I1
(I5
I-14
I-2
tp5212
tp5213
F0
s(I0
(I5
I0
I-1
tp5214
tp5215
F0.94029559461659273
s(I1
(I8
I-10
I0
tp5216
tp5217
F-99.793094657357685
s(I0
g1058
tp5218
F0
s(I1
(I5
I-7
I-1
tp5219
tp5220
F-1.1140944116758071
s(I1
(I-1
I8
I0
tp5221
tp5222
F1.3109985788151534e-05
s(I0
g4372
tp5223
F0
s(I0
g2678
tp5224
F0
s(I1
(I3
I-16
I4
tp5225
tp5226
F0
s(I0
(I-1
I3
I-1
tp5227
tp5228
F3.5869873927454822e-05
s(I1
(I9
I10
I3
tp5229
tp5230
F0.026217145740569655
s(I1
(I0
I7
I2
tp5231
tp5232
F-99.999982779326203
s(I1
(I6
I10
I4
tp5233
tp5234
F0.19466384062578407
s(I1
g5086
tp5235
F100.01021210210399
s(I0
g994
tp5236
F0
s(I1
g4472
tp5237
F6.4006695814345722
s(I0
(I1
I11
I4
tp5238
tp5239
F-99.999982565777685
s(I0
(I4
I5
I-2
tp5240
tp5241
F0
s(I1
(I9
I3
I2
tp5242
tp5243
F0.026205514782063989
s(I1
(I2
I-14
I-2
tp5244
tp5245
F0
s(I0
g4104
tp5246
F0
s(I0
g2009
tp5247
F0
s(I1
g5240
tp5248
F0
s(I0
g3255
tp5249
F-39.999979548213972
s(I0
g4037
tp5250
F0
s(I0
g3503
tp5251
F0
s(I1
(I9
I9
I0
tp5252
tp5253
F0.026217146554962052
s(I0
(I2
I16
I4
tp5254
tp5255
F0
s(I0
(I4
I-4
I2
tp5256
tp5257
F2.5602616382907168
s(I1
g2515
tp5258
F0
s(I1
(I1
I-10
I0
tp5259
tp5260
F-99.849410946631139
s(I0
(I-1
I-8
I-2
tp5261
tp5262
F0
s(I0
(I3
I12
I0
tp5263
tp5264
F0
s(I0
g2289
tp5265
F0.025623241637615153
s(I0
g59
tp5266
F0
s(I0
(I1
I-9
I-1
tp5267
tp5268
F-39.999455003875035
s(I1
(I8
I12
I3
tp5269
tp5270
F0
s(I1
(I7
I-13
I0
tp5271
tp5272
F0
s(I1
g2737
tp5273
F0
s(I1
g3594
tp5274
F-95.253737582889016
s(I0
(I9
I8
I0
tp5275
tp5276
F0.026217113994344454
s(I0
(I0
I-3
I1
tp5277
tp5278
F-99.999997185931207
s(I0
(I9
I13
I3
tp5279
tp5280
F0
s(I1
g4682
tp5281
F0
s(I0
g3102
tp5282
F0
s(I0
g4223
tp5283
F-99.999968449219153
s(I0
g4786
tp5284
F0
s(I0
g4622
tp5285
F0
s(I0
(I1
I-7
I-2
tp5286
tp5287
F0
s(I1
(I5
I-12
I4
tp5288
tp5289
F0
s(I1
g2756
tp5290
F0
s(I1
(I9
I-2
I0
tp5291
tp5292
F0.023067466891126376
s(I0
g517
tp5293
F-2.0502950420446635
s(I1
(I5
I2
I0
tp5294
tp5295
F1.0199149026064573
s(I0
g5244
tp5296
F0
s(I0
g2022
tp5297
F-96.825793289402924
s(I0
g4330
tp5298
F-1.1415758000374705
s(I1
(I5
I-6
I3
tp5299
tp5300
F0
s(I1
(I4
I-10
I3
tp5301
tp5302
F0
s(I1
(I5
I-1
I3
tp5303
tp5304
F0.92723761326573539
s(I0
g2659
tp5305
F0
s(I1
(I1
I-13
I1
tp5306
tp5307
F0
s(I1
(I6
I-1
I-1
tp5308
tp5309
F-0.27345076708909166
s(I1
(I10
I4
I-2
tp5310
tp5311
F0
s(I1
g4169
tp5312
F0
s(I0
(I4
I9
I2
tp5313
tp5314
F-99.999999133908517
s(I0
g3058
tp5315
F0
s(I0
g585
tp5316
F0
s(I1
(I8
I4
I1
tp5317
tp5318
F0.065540981570873666
s(I1
g1409
tp5319
F0
s(I0
g4261
tp5320
F-99.999990995559898
s(I0
g1319
tp5321
F0
s(I1
g4817
tp5322
F0
s(I1
g2309
tp5323
F0.064471049012382084
s(I1
(I3
I-5
I3
tp5324
tp5325
F0
s(I1
(I4
I-4
I0
tp5326
tp5327
F-2.3459326919920422
s(I1
(I7
I-1
I3
tp5328
tp5329
F0.16240354733819523
s(I1
(I10
I-11
I-2
tp5330
tp5331
F0
s(I1
g3844
tp5332
F0
s(I0
(I4
I-6
I1
tp5333
tp5334
F2.5178111009648183
s(I0
g557
tp5335
F2.6378768472892861e-06
s(I0
(I1
I-1
I1
tp5336
tp5337
F40.004194520356265
s(I1
g2321
tp5338
F0
s(I0
g5171
tp5339
F0
s(I1
(I3
I-6
I3
tp5340
tp5341
F0
s(I0
g4274
tp5342
F-99.849370078686064
s(I0
(I4
I12
I3
tp5343
tp5344
F0
s(I0
(I-1
I-5
I1
tp5345
tp5346
F0.0099495407489838626
s(I1
g2336
tp5347
F0
s(I1
(I10
I8
I2
tp5348
tp5349
F0
s(I0
(I5
I-6
I2
tp5350
tp5351
F0.93628279064208564
s(I0
g4634
tp5352
F0
s(I1
g4847
tp5353
F1.0241070715473162
s(I0
g579
tp5354
F40.004194728582739
s(I0
g3557
tp5355
F2.5602679064481428
s(I0
(I10
I-3
I1
tp5356
tp5357
F0
s(I1
(I6
I-16
I1
tp5358
tp5359
F0
s(I1
(I4
I5
I3
tp5360
tp5361
F2.5602663451365779
s(I1
(I0
I-13
I-2
tp5362
tp5363
F0
s(I0
g874
tp5364
F0
s(I0
(I6
I-5
I1
tp5365
tp5366
F0.37760762069934073
s(I0
g4297
tp5367
F99.535457517568773
s(I0
g3439
tp5368
F-99.999984540054072
s(I1
g4138
tp5369
F0.93890495578758659
s(I1
g2171
tp5370
F-6.3999663060168688
s(I1
(I4
I11
I0
tp5371
tp5372
F0
s(I1
g1354
tp5373
F100.01047345429645
s(I0
g3049
tp5374
F0.84728752927480377
s(I0
(I5
I-10
I-1
tp5375
tp5376
F-3.1256209806438235
s(I0
(I4
I15
I-1
tp5377
tp5378
F0
s(I0
g4894
tp5379
F-99.999972774125581
s(I0
g2422
tp5380
F0
s(I0
(I1
I-8
I2
tp5381
tp5382
F-39.999965605453703
s(I0
(I4
I-13
I0
tp5383
tp5384
F0
s(I0
(I2
I-8
I3
tp5385
tp5386
F0
s(I0
(I-1
I12
I4
tp5387
tp5388
F0
s(I1
(I1
I16
I0
tp5389
tp5390
F0
s(I1
(I1
I3
I4
tp5391
tp5392
F-39.990440966839564
s(I1
(I0
I-9
I2
tp5393
tp5394
F-99.749416444119888
s(I0
g2718
tp5395
F-2.2924656354579844
s(I0
g2995
tp5396
F40.004169447765236
s(I1
g2065
tp5397
F0
s(I0
(I7
I-4
I1
tp5398
tp5399
F0.16385273525026359
s(I0
(I0
I15
I0
tp5400
tp5401
F0
s(I0
g2147
tp5402
F0.026198308724448331
s(I0
g4327
tp5403
F0
s(I0
g1115
tp5404
F-99.841337597273508
s(I1
(I2
I1
I-2
tp5405
tp5406
F0
s(I1
(I4
I2
I1
tp5407
tp5408
F2.5602650503007083
s(I0
g5393
tp5409
F-94.999974596811128
s(I0
g4995
tp5410
F0
s(I0
g3420
tp5411
F0
s(I0
(I5
I-9
I0
tp5412
tp5413
F0.92680808032527073
s(I1
(I10
I11
I0
tp5414
tp5415
F0
s(I0
(I5
I16
I-1
tp5416
tp5417
F0
s(I1
(I8
I5
I3
tp5418
tp5419
F0.065542816194963882
s(I1
g3672
tp5420
F0
s(I0
(I8
I-4
I4
tp5421
tp5422
F0
s(I0
g4905
tp5423
F0.026217145176335853
s(I0
(I6
I-11
I3
tp5424
tp5425
F0
s(I1
g2950
tp5426
F-95.331056392790032
s(I1
g4755
tp5427
F0
s(I1
g3601
tp5428
F-99.999995290727156
s(I1
(I1
I-13
I0
tp5429
tp5430
F0
s(I0
(I9
I1
I0
tp5431
tp5432
F0.026215797231935224
s(I1
g2932
tp5433
F0
s(I0
g696
tp5434
F0
s(I0
g391
tp5435
F-99.999910819727688
s(I1
(I4
I-7
I1
tp5436
tp5437
F-2.7163932522632521
s(I1
(I9
I14
I2
tp5438
tp5439
F0
s(I0
g2836
tp5440
F0
s(I1
g4942
tp5441
F0
s(I0
(I4
I-11
I1
tp5442
tp5443
F-2.3031766350315213
s(I0
g5306
tp5444
F0
s(I1
(I6
I8
I-2
tp5445
tp5446
F0
s(I1
(I8
I15
I3
tp5447
tp5448
F0
s(I0
g561
tp5449
F0
s(I1
g238
tp5450
F0
s(I1
(I5
I-4
I-1
tp5451
tp5452
F-1.0024624487374307
s(I1
g723
tp5453
F0
s(I1
g4795
tp5454
F0.02619944613883091
s(I1
(I9
I5
I2
tp5455
tp5456
F0.026212466224159688
s(I0
(I5
I10
I0
tp5457
tp5458
F-1.0239986844876703
s(I0
(I4
I5
I1
tp5459
tp5460
F-2.5480066502980621
s(I0
g3710
tp5461
F0
s(I1
(I9
I13
I4
tp5462
tp5463
F0
s(I0
g4403
tp5464
F1.0241062604882591
s(I1
g4245
tp5465
F-99.99999764022688
s(I0
g919
tp5466
F0
s(I1
(I-1
I6
I2
tp5467
tp5468
F5.264406710291992e-05
s(I0
(I7
I12
I-1
tp5469
tp5470
F0
s(I0
g1534
tp5471
F0.065529594726016618
s(I1
(I5
I-12
I-2
tp5472
tp5473
F0
s(I0
(I0
I-6
I4
tp5474
tp5475
F0
s(I0
g3541
tp5476
F0
s(I0
(I8
I2
I0
tp5477
tp5478
F0.065212916528650508
s(I0
g4701
tp5479
F0
s(I0
(I7
I-10
I3
tp5480
tp5481
F0
s(I1
(I1
I8
I1
tp5482
tp5483
F-39.999451279664633
s(I1
(I1
I14
I-1
tp5484
tp5485
F0
s(I1
(I7
I-11
I-1
tp5486
tp5487
F-97.054920236669943
s(I0
(I8
I14
I4
tp5488
tp5489
F0
s(I0
(I2
I15
I4
tp5490
tp5491
F0
s(I0
g4826
tp5492
F1.0072086534929747
s(I1
g1358
tp5493
F-0.13822248696061643
s(I1
(I7
I-9
I3
tp5494
tp5495
F0
s(I0
(I2
I-5
I-2
tp5496
tp5497
F0
s(I1
g4449
tp5498
F-2.0959340918629041
s(I0
g2181
tp5499
F2.5602678313353229
s(I1
g5474
tp5500
F0
s(I1
g5477
tp5501
F0.064480435411024065
s(I1
g4705
tp5502
F-15.999764770137629
s(I1
(I2
I5
I1
tp5503
tp5504
F-15.999802170749666
s(I0
g3767
tp5505
F0
s(I0
(I8
I9
I4
tp5506
tp5507
F-99.996243565027399
s(I1
(I2
I4
I-1
tp5508
tp5509
F14.405224583775974
s(I1
g4079
tp5510
F-99.999898405599453
s(I1
g5480
tp5511
F0
s(I0
(I3
I-15
I0
tp5512
tp5513
F0
s(I0
(I8
I13
I0
tp5514
tp5515
F0
s(I0
(I0
I16
I3
tp5516
tp5517
F0
s(I0
(I1
I10
I-1
tp5518
tp5519
F-39.999967714738808
s(I1
(I4
I5
I4
tp5520
tp5521
F2.5602678994178261
s(I0
(I2
I1
I1
tp5522
tp5523
F14.405585605332274
s(I1
g1127
tp5524
F0
s(I1
(I-1
I8
I2
tp5525
tp5526
F5.0169563667920011e-06
s(I1
(I0
I14
I-1
tp5527
tp5528
F0
s(I1
g4973
tp5529
F0
s(I1
g5387
tp5530
F0
s(I1
g759
tp5531
F0.025877178949925764
s(I1
g4474
tp5532
F1.0238439353601223
s(I1
(I-1
I-3
I3
tp5533
tp5534
F0.0037061990541180827
s(I0
(I4
I-5
I3
tp5535
tp5536
F0
s(I1
g2557
tp5537
F-6.3999944452006661
s(I0
(I-1
I3
I2
tp5538
tp5539
F7.3881122575536973e-06
s(I1
(I7
I16
I0
tp5540
tp5541
F0
s(I0
g4483
tp5542
F0.14547163970467245
s(I1
g513
tp5543
F0.026085453615622103
s(I1
g2350
tp5544
F0
s(I1
g3733
tp5545
F0
s(I1
(I8
I-7
I-1
tp5546
tp5547
F-0.034907553284572845
s(I0
(I3
I-10
I-1
tp5548
tp5549
F-6.6233768527077368
s(I1
g3704
tp5550
F0
s(I1
g2568
tp5551
F0
s(I1
(I8
I-1
I-1
tp5552
tp5553
F0.059113785314274504
s(I1
g47
tp5554
F0
s(I1
g4317
tp5555
F0
s(I0
g4418
tp5556
F0
s(I0
(I2
I2
I3
tp5557
tp5558
F-16.009956277939697
s(I1
(I8
I10
I4
tp5559
tp5560
F0.065541964513150558
s(I0
(I2
I-10
I4
tp5561
tp5562
F0
s(I1
(I1
I3
I3
tp5563
tp5564
F-39.999039483071265
s(I0
(I8
I7
I4
tp5565
tp5566
F-99.999920360774254
s(I0
g4405
tp5567
F0
s(I0
(I7
I7
I-1
tp5568
tp5569
F0.16385710124698358
s(I1
g4054
tp5570
F-36.544734490065117
s(I0
(I10
I-16
I-1
tp5571
tp5572
F0
s(I1
(I3
I-16
I2
tp5573
tp5574
F0
s(I1
g5412
tp5575
F-1.040801599859124
s(I1
(I9
I10
I1
tp5576
tp5577
F0.026217144617109483
s(I1
(I9
I-7
I-2
tp5578
tp5579
F0
s(I1
g1999
tp5580
F0
s(I0
(I6
I-16
I0
tp5581
tp5582
F0
s(I0
g3325
tp5583
F-2.5588384177129617
s(I0
(I8
I16
I1
tp5584
tp5585
F0
s(I0
(I-1
I3
I4
tp5586
tp5587
F-99.999997994680626
s(I1
g2552
tp5588
F0
s(I0
(I9
I15
I3
tp5589
tp5590
F0
s(I1
(I8
I11
I2
tp5591
tp5592
F0.043526951625412424
s(I1
(I7
I-2
I-2
tp5593
tp5594
F0
s(I1
g2635
tp5595
F0
s(I1
(I8
I7
I2
tp5596
tp5597
F0.065542866698441726
s(I1
g3093
tp5598
F0
s(I0
g5438
tp5599
F0
s(I1
(I6
I-12
I4
tp5600
tp5601
F0
s(I0
g5259
tp5602
F-39.999859643771323
s(I0
(I7
I-8
I1
tp5603
tp5604
F0.16126675106927077
s(I1
(I1
I11
I1
tp5605
tp5606
F-39.999948340959577
s(I1
g198
tp5607
F-0.2393118758648709
s(I0
g5596
tp5608
F-4.8089252929186159
s(I1
(I5
I-7
I3
tp5609
tp5610
F0
s(I0
(I9
I5
I-2
tp5611
tp5612
F0
s(I1
(I1
I-15
I4
tp5613
tp5614
F0
s(I1
g5093
tp5615
F0.37775301259823851
s(I1
g4528
tp5616
F0
s(I1
(I8
I-8
I3
tp5617
tp5618
F0
s(I1
g4919
tp5619
F-17.082963559273061
s(I0
g4707
tp5620
F0
s(I1
g937
tp5621
F0
s(I1
(I-1
I12
I0
tp5622
tp5623
F0
s(I0
g5308
tp5624
F0.35682588514648084
s(I1
g4751
tp5625
F0
s(I1
g4964
tp5626
F0
s(I0
(I5
I-5
I2
tp5627
tp5628
F1.0239817341163142
s(I0
g4088
tp5629
F2.3049329443340758
s(I0
g4969
tp5630
F0
s(I1
g4586
tp5631
F0
s(I0
g4885
tp5632
F0
s(I1
(I5
I-12
I-1
tp5633
tp5634
F-99.99999893256971
s(I1
(I3
I-5
I0
tp5635
tp5636
F-6.3999950537781478
s(I0
(I4
I8
I3
tp5637
tp5638
F-99.999978796137228
s(I1
g3907
tp5639
F-0.093929646364833336
s(I1
g4971
tp5640
F-39.999989229107577
s(I1
g2954
tp5641
F-6.3709059909963166
s(I1
g2098
tp5642
F6.293585748150524
s(I0
g966
tp5643
F0
s(I1
g3338
tp5644
F1.0241066767425058
s(I0
(I0
I-6
I1
tp5645
tp5646
F-99.999898356861678
s(I1
(I9
I11
I-2
tp5647
tp5648
F0
s(I0
g4961
tp5649
F-99.999997338024826
s(I1
(I9
I10
I4
tp5650
tp5651
F0.026217115345763681
s(I0
(I3
I4
I0
tp5652
tp5653
F-5.760341777053319
s(I0
(I-1
I-11
I3
tp5654
tp5655
F0
s(I1
(I6
I-10
I4
tp5656
tp5657
F0
s(I0
(I9
I-9
I0
tp5658
tp5659
F0.023981459316987752
s(I0
g2264
tp5660
F40.004193201483019
s(I0
(I10
I0
I-2
tp5661
tp5662
F0
s(I1
(I6
I13
I-2
tp5663
tp5664
F0
s(I1
g4949
tp5665
F0
s(I1
g2519
tp5666
F0
s(I1
g2521
tp5667
F4.2952383645445895e-06
s(I0
(I5
I14
I-1
tp5668
tp5669
F0
s(I0
(I6
I-2
I0
tp5670
tp5671
F0.40797765442448058
s(I0
g214
tp5672
F1.9313298087090929
s(I0
g200
tp5673
F0
s(I0
(I2
I-8
I2
tp5674
tp5675
F15.925597688321636
s(I0
g5663
tp5676
F0
s(I0
g3091
tp5677
F0
s(I1
g466
tp5678
F0
s(I1
g4453
tp5679
F0
s(I1
g3859
tp5680
F0.16385717135109842
s(I0
g3180
tp5681
F0
s(I0
(I1
I-3
I-1
tp5682
tp5683
F-39.999873388577363
s(I0
(I5
I-5
I0
tp5684
tp5685
F-0.57057332003229244
s(I0
g3772
tp5686
F-99.999805428408422
s(I1
(I-1
I-12
I1
tp5687
tp5688
F-99.999991064555672
s(I1
g1984
tp5689
F0.065542280307351819
s(I0
(I3
I-6
I4
tp5690
tp5691
F0
s(I0
g3188
tp5692
F0
s(I1
g860
tp5693
F0
s(I0
(I2
I-15
I2
tp5694
tp5695
F0
s(I1
g5118
tp5696
F0.065542804419971901
s(I1
(I9
I-2
I3
tp5697
tp5698
F0.024149459356630515
s(I1
g3978
tp5699
F0
s(I0
(I1
I-7
I1
tp5700
tp5701
F-39.999985133810164
s(I1
g2926
tp5702
F0
s(I0
(I9
I8
I1
tp5703
tp5704
F0.025603461629797424
s(I1
g5561
tp5705
F0
s(I0
(I0
I-2
I2
tp5706
tp5707
F100.01048679769282
s(I0
g3212
tp5708
F1.0178716411968578
s(I0
g3880
tp5709
F0
s(I1
g1945
tp5710
F0
s(I0
(I1
I13
I3
tp5711
tp5712
F0
s(I0
(I2
I-10
I-2
tp5713
tp5714
F0
s(I1
g956
tp5715
F-39.999987159280472
s(I1
g3992
tp5716
F-99.999995804864966
s(I0
g2792
tp5717
F0.16237108882196377
s(I1
(I0
I0
I1
tp5718
tp5719
F100.01036169012221
s(I0
g2797
tp5720
F9.0545792359337059e-05
s(I1
g3345
tp5721
F8.4310320476728906e-05
s(I0
g2802
tp5722
F0
s(I1
g3230
tp5723
F-2.5614490857403478
s(I0
g296
tp5724
F0
s(I1
g4269
tp5725
F0
s(I0
g4813
tp5726
F-39.99999583326025
s(I0
(I10
I7
I2
tp5727
tp5728
F0
s(I0
(I3
I6
I-2
tp5729
tp5730
F0
s(I0
(I3
I-3
I2
tp5731
tp5732
F5.8226519222897846
s(I0
g2818
tp5733
F-0.29100396471937917
s(I1
(I4
I1
I0
tp5734
tp5735
F2.5481378723643582
s(I0
(I3
I1
I4
tp5736
tp5737
F-99.999995209304998
s(I1
g4014
tp5738
F-99.99879426260307
s(I1
g3914
tp5739
F-2.049020051532279
s(I1
g2573
tp5740
F3.1568968702432715e-05
s(I0
g627
tp5741
F0
s(I1
g3087
tp5742
F0
s(I0
(I4
I7
I0
tp5743
tp5744
F-2.3405489907176404
s(I0
(I7
I-12
I4
tp5745
tp5746
F0
s(I0
(I8
I14
I0
tp5747
tp5748
F0
s(I0
g1908
tp5749
F0.026021671261760328
s(I1
(I2
I0
I4
tp5750
tp5751
F0
s(I0
g2586
tp5752
F-99.999918313875725
s(I1
(I9
I-4
I1
tp5753
tp5754
F0.01998291369117447
s(I1
g5490
tp5755
F0
s(I0
g2844
tp5756
F-94.999994973598888
s(I1
g91
tp5757
F-39.99945840601471
s(I0
g5605
tp5758
F-99.987459451870635
s(I1
g686
tp5759
F0
s(I1
(I7
I-4
I2
tp5760
tp5761
F0.14876255242199843
s(I1
g3815
tp5762
F-16.054671224450473
s(I1
g4620
tp5763
F-42.992496994814211
s(I1
g3742
tp5764
F0
s(I1
g4524
tp5765
F0
s(I1
g3857
tp5766
F0.14715652604845622
s(I1
g1101
tp5767
F0
s(I1
(I9
I-11
I4
tp5768
tp5769
F0
s(I1
(I2
I0
I0
tp5770
tp5771
F15.918821696039654
s(I0
g595
tp5772
F-99.749978739182566
s(I0
g5231
tp5773
F-99.999980976771596
s(I1
(I1
I8
I4
tp5774
tp5775
F-39.999987769408449
s(I0
(I-1
I1
I3
tp5776
tp5777
F2.3854505743460747e-06
s(I1
g5747
tp5778
F0
s(I1
g5571
tp5779
F0
s(I1
(I6
I-13
I2
tp5780
tp5781
F0
s(I0
(I10
I-1
I-2
tp5782
tp5783
F0
s(I0
g79
tp5784
F0
s(I0
(I2
I3
I4
tp5785
tp5786
F-99.999996573852528
s(I0
g5080
tp5787
F2.5251372008458675
s(I1
(I2
I-14
I4
tp5788
tp5789
F0
s(I0
g5200
tp5790
F-0.26036390553319877
s(I1
g3529
tp5791
F-0.93281700514026444
s(I1
g1125
tp5792
F-39.999957150569756
s(I1
(I4
I-7
I4
tp5793
tp5794
F0
s(I1
g3206
tp5795
F-5.0887750880653897
s(I1
(I6
I-3
I4
tp5796
tp5797
F0
s(I0
g4388
tp5798
F0
s(I0
g1973
tp5799
F-99.999990225407089
s(I1
(I9
I2
I3
tp5800
tp5801
F0.026190369944646831
s(I1
(I0
I-8
I2
tp5802
tp5803
F-99.998560307059648
s(I1
g5776
tp5804
F1.3040490889622236e-05
s(I0
g2034
tp5805
F0
s(I0
g2979
tp5806
F-2.5721770954577918
s(I0
g1068
tp5807
F0
s(I0
g629
tp5808
F0
s(I0
g3494
tp5809
F-97.142473623653444
s(I0
g3889
tp5810
F-5.7558872543530573
s(I0
(I3
I14
I0
tp5811
tp5812
F0
s(I1
(I5
I16
I0
tp5813
tp5814
F0
s(I0
g5622
tp5815
F0
s(I1
g5254
tp5816
F0
s(I1
g2242
tp5817
F3.6299298747542742e-05
s(I1
(I5
I-8
I4
tp5818
tp5819
F0
s(I1
(I2
I12
I2
tp5820
tp5821
F0
s(I1
g2533
tp5822
F0
s(I0
g975
tp5823
F-94.98529091972506
s(I0
(I5
I6
I-2
tp5824
tp5825
F0
s(I0
(I6
I-11
I4
tp5826
tp5827
F0
s(I1
(I10
I9
I-1
tp5828
tp5829
F0
s(I1
g5670
tp5830
F0.36800795058350944
s(I1
g478
tp5831
F0
s(I0
g2356
tp5832
F0
s(I0
g2902
tp5833
F4.1710301786309903e-05
s(I1
g455
tp5834
F0
s(I1
g5743
tp5835
F-2.3283798508143065
s(I1
g4674
tp5836
F-0.72133208764643353
s(I1
(I8
I1
I1
tp5837
tp5838
F0.065200591041632505
s(I1
g4759
tp5839
F-0.28816312057121962
s(I0
(I7
I11
I1
tp5840
tp5841
F-94.999999428214679
s(I1
(I7
I-9
I0
tp5842
tp5843
F-1.4674949401408606
s(I0
(I4
I7
I1
tp5844
tp5845
F-2.560578657512683
s(I1
g5684
tp5846
F-1.0236693597414432
s(I1
(I8
I2
I1
tp5847
tp5848
F0.065500538758286819
s(I1
g3527
tp5849
F-0.10359833482459013
s(I0
g4611
tp5850
F0
s(I1
g3940
tp5851
F0
s(I1
g2378
tp5852
F-99.999983243569275
s(I1
g5668
tp5853
F0
s(I1
g5782
tp5854
F0
s(I1
g2948
tp5855
F1.0240462917117736
s(I0
(I7
I-6
I2
tp5856
tp5857
F0.16361743066734527
s(I1
(I10
I-10
I4
tp5858
tp5859
F0
s(I0
(I5
I-2
I1
tp5860
tp5861
F1.0194504836556582
s(I1
(I9
I6
I0
tp5862
tp5863
F0.026019584300627396
s(I1
(I2
I-11
I3
tp5864
tp5865
F0
s(I0
g3544
tp5866
F0
s(I0
g2666
tp5867
F2.5392002283258832
s(I1
g511
tp5868
F0
s(I0
(I4
I3
I-1
tp5869
tp5870
F2.5602330209256769
s(I0
g3961
tp5871
F0
s(I1
g4385
tp5872
F0
s(I1
g1233
tp5873
F0
s(I0
(I4
I6
I-1
tp5874
tp5875
F-2.535282903392682
s(I1
(I1
I6
I-2
tp5876
tp5877
F0
s(I0
g1733
tp5878
F0
s(I1
g4069
tp5879
F-6.3997913938753639
s(I0
(I7
I13
I3
tp5880
tp5881
F0
s(I1
g4643
tp5882
F0.93623091705847705
s(I0
g266
tp5883
F0
s(I0
(I7
I-10
I4
tp5884
tp5885
F0
s(I0
g4238
tp5886
F0
s(I0
(I10
I6
I3
tp5887
tp5888
F0
s(I1
g2110
tp5889
F0.16114506071246953
s(I1
(I6
I2
I0
tp5890
tp5891
F0.40771959071275088
s(I1
(I8
I2
I2
tp5892
tp5893
F0.065029292154156162
s(I0
(I1
I-14
I0
tp5894
tp5895
F0
s(I0
(I8
I-10
I-1
tp5896
tp5897
F-96.815140840698547
s(I0
g2813
tp5898
F0
s(I1
(I4
I13
I2
tp5899
tp5900
F0
s(I0
g290
tp5901
F0
s(I0
g4188
tp5902
F0
s(I0
g4626
tp5903
F1.0240917822547477
s(I0
g2805
tp5904
F0
s(I1
(I4
I16
I4
tp5905
tp5906
F0
s(I0
g5486
tp5907
F-4.5965925491485393
s(I1
g4837
tp5908
F0
s(I1
g4191
tp5909
F0.065542835624103402
s(I1
g3178
tp5910
F0
s(I1
g2466
tp5911
F0
s(I1
g5365
tp5912
F0.27507225706433597
s(I0
g312
tp5913
F0
s(I0
g3590
tp5914
F0
s(I0
g5326
tp5915
F2.3188120366311669
s(I1
g2577
tp5916
F-15.99999443868415
s(I0
g352
tp5917
F-39.999983449637583
s(I1
(I2
I-1
I0
tp5918
tp5919
F13.102124889664539
s(I0
g5774
tp5920
F-99.999805432017808
s(I1
g4213
tp5921
F0.026215869727194009
s(I1
(I1
I9
I4
tp5922
tp5923
F-39.999788261534931
s(I0
g4824
tp5924
F0
s(I0
g3427
tp5925
F0.16024703822790362
s(I0
(I2
I5
I-2
tp5926
tp5927
F0
s(I0
(I8
I7
I3
tp5928
tp5929
F-5.0464191094708326
s(I0
(I4
I11
I4
tp5930
tp5931
F-99.999990937710947
s(I1
g5350
tp5932
F-0.76039481789448282
s(I0
(I10
I12
I0
tp5933
tp5934
F0
s(I1
g4687
tp5935
F-6.3999181327421741
s(I0
g5216
tp5936
F0.063819636156020598
s(I0
g1860
tp5937
F-39.998559285127712
s(I0
(I9
I-13
I-2
tp5938
tp5939
F0
s(I1
(I10
I3
I1
tp5940
tp5941
F0
s(I1
(I1
I2
I-2
tp5942
tp5943
F0
s(I0
g4699
tp5944
F-99.988066250233075
s(I1
g809
tp5945
F0
s(I0
(I5
I-15
I0
tp5946
tp5947
F0
s(I1
g3445
tp5948
F0
s(I1
(I8
I-9
I2
tp5949
tp5950
F0
s(I1
g5398
tp5951
F0.12693534203026977
s(I0
g603
tp5952
F6.337254479517366
s(I0
g2183
tp5953
F0
s(I1
(I8
I-8
I4
tp5954
tp5955
F0
s(I0
g2163
tp5956
F0
s(I1
g4067
tp5957
F0
s(I0
(I7
I15
I-2
tp5958
tp5959
F0
s(I0
(I2
I-13
I-1
tp5960
tp5961
F0
s(I1
(I9
I-13
I-1
tp5962
tp5963
F0
s(I0
(I9
I11
I0
tp5964
tp5965
F0
s(I0
g5818
tp5966
F0
s(I1
g3469
tp5967
F0
s(I1
g3680
tp5968
F-99.999990702186494
s(I0
g3471
tp5969
F0
s(I1
(I4
I11
I-1
tp5970
tp5971
F0
s(I0
(I5
I14
I1
tp5972
tp5973
F0
s(I1
g3126
tp5974
F0
s(I0
g4728
tp5975
F-39.99990628728829
s(I0
g1361
tp5976
F0
s(I0
g5018
tp5977
F1.0241055790373359
s(I0
g5252
tp5978
F0.02611440605110598
s(I0
(I10
I15
I4
tp5979
tp5980
F0
s(I0
g4516
tp5981
F0
s(I0
g2664
tp5982
F-99.99999874322566
s(I0
g3286
tp5983
F0
s(I1
g5385
tp5984
F0
s(I0
(I1
I10
I1
tp5985
tp5986
F-99.99997869828627
s(I1
g5424
tp5987
F0
s(I0
g5271
tp5988
F0
s(I0
g3085
tp5989
F0.40948909984957377
s(I0
(I4
I-3
I1
tp5990
tp5991
F2.0969597995154112
s(I1
g4423
tp5992
F0
s(I0
g2235
tp5993
F0
s(I1
(I5
I13
I2
tp5994
tp5995
F0
s(I1
(I-1
I5
I3
tp5996
tp5997
F0.0016165847100490177
s(I1
g4125
tp5998
F0
s(I0
g1401
tp5999
F0.024264742041843354
s(I0
g4927
tp6000
F0.065504704372868844
s(I1
g4863
tp6001
F0
s(I0
(I2
I-12
I3
tp6002
tp6003
F0
s(I1
g1537
tp6004
F0
s(I0
g3106
tp6005
F0.92884134128662965
s(I1
g5990
tp6006
F1.9278027773035831
s(I1
(I2
I-4
I1
tp6007
tp6008
F-15.999994449460383
s(I0
(I3
I7
I1
tp6009
tp6010
F-6.3999863517464162
s(I0
g4692
tp6011
F0.026216811951427364
s(I1
g5874
tp6012
F-2.3041664575743686
s(I0
g2538
tp6013
F0
s(I0
(I10
I1
I3
tp6014
tp6015
F0
s(I1
g5459
tp6016
F2.5602594131068108
s(I1
(I0
I-7
I4
tp6017
tp6018
F0
s(I0
(I6
I1
I3
tp6019
tp6020
F0.17116848105351501
s(I0
(I1
I-5
I0
tp6021
tp6022
F-39.999952612108856
s(I0
(I8
I9
I0
tp6023
tp6024
F-0.037625928588207277
s(I0
g2042
tp6025
F-5.0581275350323267
s(I0
g5418
tp6026
F-4.9382794758934381
s(I0
g4883
tp6027
F-0.32109831301411695
s(I0
g5864
tp6028
F0
s(I1
g5706
tp6029
F-99.999995866811986
s(I0
g637
tp6030
F0
s(I1
(I0
I-10
I4
tp6031
tp6032
F0
s(I1
g4592
tp6033
F0
s(I1
(I8
I-10
I-2
tp6034
tp6035
F0
s(I0
g2990
tp6036
F-99.999968433508329
s(I0
g727
tp6037
F0
s(I1
(I4
I9
I4
tp6038
tp6039
F-2.5599862166116654
s(I1
g4901
tp6040
F6.4006677937519729
s(I1
g5333
tp6041
F-2.5910127356998456
s(I0
(I1
I-7
I0
tp6042
tp6043
F-39.999973016402024
s(I0
g6017
tp6044
F0
s(I0
(I9
I9
I4
tp6045
tp6046
F-99.999851550735954
s(I1
(I0
I0
I2
tp6047
tp6048
F98.634476816985341
s(I1
g4907
tp6049
F-15.999998325042306
s(I0
g3826
tp6050
F0
s(I0
g5340
tp6051
F0
s(I1
(I8
I-13
I1
tp6052
tp6053
F0
s(I1
(I2
I0
I3
tp6054
tp6055
F14.622200652422791
s(I1
(I0
I0
I-1
tp6056
tp6057
F100.01047571275889
s(I0
g746
tp6058
F0
s(I0
(I3
I1
I3
tp6059
tp6060
F0.10132071858879499
s(I1
(I3
I-3
I3
tp6061
tp6062
F-6.3997642951008
s(I1
(I5
I-13
I4
tp6063
tp6064
F0
s(I0
g803
tp6065
F0
s(I0
(I3
I12
I-1
tp6066
tp6067
F0
s(I0
g3930
tp6068
F0
s(I1
g2317
tp6069
F0
s(I1
g6042
tp6070
F-42.84996962755195
s(I0
(I8
I3
I2
tp6071
tp6072
F0.064934949865474711
s(I0
g3581
tp6073
F0
s(I1
g192
tp6074
F0
s(I0
g5918
tp6075
F-12.952216332421854
s(I1
(I10
I2
I-1
tp6076
tp6077
F0
s(I1
g2809
tp6078
F9.8867630496767989e-06
s(I1
g3619
tp6079
F0.025957367628734067
s(I0
g5330
tp6080
F0
s(I1
g260
tp6081
F-15.999886615261611
s(I0
(I10
I-11
I0
tp6082
tp6083
F0
s(I1
(I1
I5
I-2
tp6084
tp6085
F0
s(I1
g206
tp6086
F0
s(I0
(I9
I-6
I0
tp6087
tp6088
F0.025817675580557819
s(I1
(I2
I15
I3
tp6089
tp6090
F0
s(I1
g607
tp6091
F0
s(I1
(I0
I12
I4
tp6092
tp6093
F0
s(I0
g4281
tp6094
F0
s(I0
(I10
I6
I1
tp6095
tp6096
F0
s(I0
g1532
tp6097
F-99.749969749932703
s(I0
g3026
tp6098
F1.0117578648655343
s(I0
(I5
I11
I1
tp6099
tp6100
F0
s(I1
g5568
tp6101
F0.16385706956706478
s(I0
(I1
I8
I3
tp6102
tp6103
F-99.999989740139398
s(I0
g3777
tp6104
F0
s(I1
g3247
tp6105
F0
s(I1
(I1
I7
I4
tp6106
tp6107
F-39.999993128163723
s(I0
(I10
I13
I-1
tp6108
tp6109
F0
s(I0
(I2
I1
I-1
tp6110
tp6111
F16.001442666590368
s(I0
(I10
I6
I0
tp6112
tp6113
F0
s(I0
(I10
I-14
I-1
tp6114
tp6115
F0
s(I0
g5219
tp6116
F-2.7833051106380751
s(I0
(I7
I-1
I1
tp6117
tp6118
F0.16385671736042309
s(I1
(I4
I-4
I3
tp6119
tp6120
F0
s(I1
g2367
tp6121
F0
s(I1
g3797
tp6122
F0.02601541074302631
s(I1
(I0
I-1
I0
tp6123
tp6124
F100.00973017862988
s(I0
g854
tp6125
F-99.999980852667775
s(I1
(I10
I9
I1
tp6126
tp6127
F0
s(I0
g717
tp6128
F0.065166100049079384
s(I1
g6102
tp6129
F-39.999995088189245
s(I0
(I5
I16
I2
tp6130
tp6131
F0
s(I0
(I10
I3
I3
tp6132
tp6133
F0
s(I0
(I4
I-8
I1
tp6134
tp6135
F2.5583685755782195
s(I1
g4953
tp6136
F0
s(I0
(I5
I7
I-1
tp6137
tp6138
F-0.91368841619405683
s(I1
g971
tp6139
F-15.99998982419133
s(I1
(I2
I-15
I4
tp6140
tp6141
F0
s(I1
(I8
I11
I4
tp6142
tp6143
F0.02948770827860759
s(I0
g839
tp6144
F0.16312758817142559
s(I1
(I10
I0
I4
tp6145
tp6146
F0
s(I1
g2407
tp6147
F0
s(I1
(I0
I15
I1
tp6148
tp6149
F0
s(I1
g480
tp6150
F-16.199553010658345
s(I0
g5591
tp6151
F-99.999962527892492
s(I0
g4255
tp6152
F0.026032789158944046
s(I0
g6119
tp6153
F0
s(I1
g619
tp6154
F1.0239922865244651
s(I0
g4416
tp6155
F-0.068706751148684811
s(I0
g4976
tp6156
F-2.571595743324206
s(I1
(I6
I15
I-2
tp6157
tp6158
F0
s(I0
(I-1
I4
I4
tp6159
tp6160
F-99.999986158891176
s(I0
g3250
tp6161
F0
s(I0
g5892
tp6162
F-94.997312493969929
s(I1
(I1
I-16
I2
tp6163
tp6164
F0
s(I1
g63
tp6165
F0
s(I1
(I4
I11
I-2
tp6166
tp6167
F0
s(I1
g4420
tp6168
F0
s(I0
g6007
tp6169
F16.001676101545357
s(I0
(I6
I8
I-1
tp6170
tp6171
F-0.29601038979772254
s(I1
g2313
tp6172
F8.3160233400458882e-05
s(I1
(I0
I1
I0
tp6173
tp6174
F100.01024297537685
s(I0
(I9
I-9
I-1
tp6175
tp6176
F-4.9645241470701365
s(I1
(I8
I12
I2
tp6177
tp6178
F0
s(I0
g5063
tp6179
F0
s(I1
(I8
I1
I0
tp6180
tp6181
F0.059279705371733327
s(I1
g5603
tp6182
F-0.43304877002957953
s(I1
g2319
tp6183
F2.5602661411962329
s(I1
g4998
tp6184
F-1.9889591630912404
s(I0
g4355
tp6185
F-99.749928129974506
s(I1
(I-1
I-12
I-1
tp6186
tp6187
F-99.999939652362357
s(I0
(I3
I15
I-1
tp6188
tp6189
F0
s(I0
g543
tp6190
F-6.3999956146189092
s(I1
(I7
I5
I-1
tp6191
tp6192
F0.16385678386295646
s(I0
g4849
tp6193
F-99.999992078304714
s(I0
g5617
tp6194
F0
s(I1
g286
tp6195
F0
s(I0
g4931
tp6196
F-99.999497006874279
s(I1
g2895
tp6197
F0
s(I0
g1074
tp6198
F-0.84174589308219094
s(I0
g4934
tp6199
F6.3963941065664116
s(I1
g6117
tp6200
F0.1595705897929407
s(I0
g2449
tp6201
F-6.3999927378233998
s(I0
g3235
tp6202
F0
s(I1
g4377
tp6203
F6.4006700935256022
s(I1
g5627
tp6204
F-0.96846211039994734
s(I1
(I5
I-1
I4
tp6205
tp6206
F0
s(I0
(I6
I-14
I0
tp6207
tp6208
F0
s(I1
g4489
tp6209
F0
s(I1
g5031
tp6210
F0
s(I0
g3697
tp6211
F0.026217125129830501
s(I0
(I5
I2
I-2
tp6212
tp6213
F0
s(I0
g6054
tp6214
F-15.999796519562853
s(I0
g159
tp6215
F0
s(I1
(I6
I5
I-2
tp6216
tp6217
F0
s(I0
g5128
tp6218
F0
s(I1
g3252
tp6219
F0
s(I0
g4514
tp6220
F0
s(I0
g5890
tp6221
F0.37451626032128044
s(I0
g6205
tp6222
F0
s(I0
g5294
tp6223
F1.0240909863957881
s(I0
g3076
tp6224
F0
s(I0
g988
tp6225
F0
s(I1
g4411
tp6226
F-2.5374549577767027
s(I1
(I9
I-15
I-2
tp6227
tp6228
F0
s(I0
g1085
tp6229
F0
s(I1
(I9
I16
I0
tp6230
tp6231
F0
s(I1
(I4
I10
I2
tp6232
tp6233
F-2.5599965531242237
s(I1
(I3
I-12
I3
tp6234
tp6235
F0
s(I0
g5942
tp6236
F0
s(I0
(I10
I-6
I-1
tp6237
tp6238
F0
s(I0
g754
tp6239
F-99.999911162896936
s(I1
(I0
I-8
I1
tp6240
tp6241
F-99.999997470054183
s(I0
g4535
tp6242
F0
s(I1
g5518
tp6243
F-39.9999969945057
s(I1
(I2
I3
I-1
tp6244
tp6245
F16.001674226663752
s(I1
(I9
I-15
I-1
tp6246
tp6247
F0
s(I1
g2382
tp6248
F0
s(I1
g1731
tp6249
F0.16381908016871438
s(I1
(I0
I14
I1
tp6250
tp6251
F0
s(I1
g4443
tp6252
F0.37290305387282502
s(I1
(I5
I0
I1
tp6253
tp6254
F0.91923338861920978
s(I0
g6076
tp6255
F0
s(I1
(I3
I-1
I3
tp6256
tp6257
F5.7636699070356476
s(I1
g6237
tp6258
F0
s(I0
g3356
tp6259
F0.16381957538106803
s(I0
g3358
tp6260
F-99.999970371910038
s(I1
(I-1
I2
I-1
tp6261
tp6262
F1.3336383398342241e-05
s(I1
(I1
I-1
I2
tp6263
tp6264
F-32.408704205817045
s(I1
(I10
I-10
I1
tp6265
tp6266
F0
s(I0
g350
tp6267
F-6.4001914279900731
s(I0
g2648
tp6268
F0.071182623319057448
s(I0
(I7
I-8
I3
tp6269
tp6270
F0
s(I1
g4365
tp6271
F0
s(I0
(I8
I7
I0
tp6272
tp6273
F0.065542859206687717
s(I0
(I8
I-10
I3
tp6274
tp6275
F0
s(I0
g2555
tp6276
F-6.3999870848728238
s(I0
g2175
tp6277
F0
s(I1
(I9
I-5
I1
tp6278
tp6279
F-0.021071925030295612
s(I0
g6142
tp6280
F-99.999996603748585
s(I1
g5785
tp6281
F16.00167425623177
s(I0
(I5
I-15
I3
tp6282
tp6283
F0
s(I1
(I6
I10
I2
tp6284
tp6285
F-0.40950624572804845
s(I0
(I6
I-16
I4
tp6286
tp6287
F0
s(I0
g1500
tp6288
F-99.999786126813532
s(I0
(I10
I-1
I-1
tp6289
tp6290
F0
s(I0
g5734
tp6291
F2.5498136138831917
s(I1
g3398
tp6292
F5.324821981279797
s(I0
g2416
tp6293
F0
s(I0
g5005
tp6294
F0
s(I0
g2029
tp6295
F0
s(I0
g3023
tp6296
F0
s(I1
g2650
tp6297
F0
s(I0
g4253
tp6298
F0
s(I1
(I2
I14
I3
tp6299
tp6300
F0
s(I1
(I9
I4
I4
tp6301
tp6302
F0.026114985899897761
s(I1
g2599
tp6303
F0.066033849948783363
s(I0
g1797
tp6304
F0
s(I0
(I8
I12
I4
tp6305
tp6306
F0
s(I0
g6261
tp6307
F8.6104941167317015e-05
s(I1
g3988
tp6308
F0
s(I1
g844
tp6309
F100.01011813496311
s(I1
g5589
tp6310
F0
s(I1
g4016
tp6311
F-99.999800654529224
s(I0
(I7
I-4
I0
tp6312
tp6313
F0.16385692400277577
s(I1
g631
tp6314
F-99.999885697736602
s(I1
g5711
tp6315
F0
s(I1
g5116
tp6316
F0
s(I0
g4909
tp6317
F1.0190659738337959
s(I1
(I2
I-9
I4
tp6318
tp6319
F0
s(I1
g3128
tp6320
F0
s(I0
g5052
tp6321
F0
s(I1
(I2
I-8
I0
tp6322
tp6323
F-16.054171589869835
s(I0
g2731
tp6324
F-95.238077701235099
s(I1
g6188
tp6325
F0
s(I0
g2327
tp6326
F0.026206043525109475
s(I1
g2623
tp6327
F0
s(I1
(I2
I-11
I1
tp6328
tp6329
F-99.992493595565733
s(I1
g3626
tp6330
F-99.992696250182931
s(I1
(I8
I12
I1
tp6331
tp6332
F0
s(I0
(I6
I-15
I2
tp6333
tp6334
F0
s(I0
(I5
I-9
I1
tp6335
tp6336
F-0.81593519982023399
s(I1
(I-1
I-11
I2
tp6337
tp6338
F0
s(I0
g4062
tp6339
F0
s(I1
g4440
tp6340
F-39.999997976897333
s(I0
g3429
tp6341
F0
s(I1
(I4
I12
I-2
tp6342
tp6343
F0
s(I1
g4043
tp6344
F-2.5599943751318519
s(I1
g4456
tp6345
F0
s(I0
g6216
tp6346
F0
s(I0
g5820
tp6347
F0
s(I0
g1103
tp6348
F0
s(I0
(I4
I15
I-2
tp6349
tp6350
F0
s(I0
g2654
tp6351
F-99.999885572839233
s(I1
g1889
tp6352
F0.051586543200581592
s(I0
(I5
I3
I-1
tp6353
tp6354
F1.019895782113809
s(I1
g4631
tp6355
F0
s(I0
(I2
I-3
I4
tp6356
tp6357
F0
s(I0
g6191
tp6358
F0.16385708070482824
s(I1
(I0
I-3
I3
tp6359
tp6360
F-99.999978579800299
s(I0
g5233
tp6361
F-99.999912795134051
s(I0
g1451
tp6362
F0
s(I0
g6232
tp6363
F-99.999982134125617
s(I1
g5173
tp6364
F0
s(I1
(I0
I-7
I3
tp6365
tp6366
F0
s(I1
g377
tp6367
F0
s(I1
g3118
tp6368
F0
s(I0
(I7
I3
I-2
tp6369
tp6370
F0
s(I1
g4467
tp6371
F0.0655418258964727
s(I1
g3668
tp6372
F0
s(I0
g2745
tp6373
F0
s(I0
(I5
I-14
I3
tp6374
tp6375
F0
s(I1
g5345
tp6376
F-2.2153116596735105e-06
s(I0
(I3
I-10
I4
tp6377
tp6378
F0
s(I1
g385
tp6379
F0
s(I1
g5637
tp6380
F-2.5599908662473907
s(I0
g688
tp6381
F0
s(I1
g5611
tp6382
F0
s(I1
(I4
I-15
I4
tp6383
tp6384
F0
s(I0
g3297
tp6385
F2.5486195864537415
s(I1
(I6
I-12
I-2
tp6386
tp6387
F0
s(I0
g4576
tp6388
F0
s(I0
g5096
tp6389
F0
s(I0
g5165
tp6390
F0.40785356685092233
s(I0
g2694
tp6391
F0.16248046155682591
s(I0
g6230
tp6392
F0
s(I0
(I3
I-13
I4
tp6393
tp6394
F0
s(I0
g1152
tp6395
F0
s(I0
(I0
I0
I4
tp6396
tp6397
F0
s(I0
g5750
tp6398
F0
s(I1
g165
tp6399
F-2.5599552398253738
s(I1
g4511
tp6400
F0
s(I0
g1162
tp6401
F0
s(I0
(I-1
I-2
I-1
tp6402
tp6403
F-1.3875379651940377e-06
s(I1
g3279
tp6404
F0
s(I1
(I1
I-6
I1
tp6405
tp6406
F-42.849978940348201
s(I1
g4668
tp6407
F-0.75490701677579386
s(I1
g6108
tp6408
F0
s(I0
g5847
tp6409
F0.06554168576755133
s(I0
g5800
tp6410
F-95.010568615183018
s(I1
g933
tp6411
F0
s(I0
g3905
tp6412
F0
s(I0
(I4
I9
I3
tp6413
tp6414
F-99.999999166543574
s(I1
g3329
tp6415
F0
s(I0
g567
tp6416
F-99.999926328341303
s(I1
(I8
I1
I-1
tp6417
tp6418
F0.058978472950410983
s(I1
(I9
I1
I3
tp6419
tp6420
F0.025508619316444187
s(I0
g1180
tp6421
F6.3992093678222934
s(I0
g2531
tp6422
F0
s(I1
(I9
I12
I0
tp6423
tp6424
F0
s(I0
g5206
tp6425
F0
s(I1
g4315
tp6426
F-99.999810228689171
s(I0
(I9
I-6
I-1
tp6427
tp6428
F0.020067476101568244
s(I0
g2431
tp6429
F-99.999997433449849
s(I0
g4603
tp6430
F0
s(I0
(I8
I2
I3
tp6431
tp6432
F-95.008421396456711
s(I0
g1191
tp6433
F-94.999920256452882
s(I0
g5212
tp6434
F0
s(I1
g6269
tp6435
F0
s(I0
g4465
tp6436
F0.026217135600451566
s(I0
g3450
tp6437
F-2.5614060768615721
s(I0
g2807
tp6438
F-19.989991809378296
s(I1
g1201
tp6439
F0
s(I1
g2743
tp6440
F0
s(I0
g1140
tp6441
F0.026210958566993087
s(I1
(I1
I6
I2
tp6442
tp6443
F-39.999980868020465
s(I0
g6244
tp6444
F15.845322415154431
s(I0
g5299
tp6445
F0
s(I0
g3950
tp6446
F0
s(I0
g2527
tp6447
F0
s(I1
g5496
tp6448
F0
s(I0
g1259
tp6449
F-15.999807862834881
s(I0
(I2
I-10
I0
tp6450
tp6451
F-15.999920189027776
s(I0
(I1
I5
I4
tp6452
tp6453
F-99.999983869530922
s(I1
g2439
tp6454
F0.16297179323735145
s(I1
g990
tp6455
F-6.3361725662358737
s(I1
g2020
tp6456
F0
s(I0
g2762
tp6457
F-94.997350037634206
s(I1
g5056
tp6458
F-0.21051070060083088
s(I0
g4629
tp6459
F0
s(I0
g242
tp6460
F5.7869030874348057
s(I0
g3555
tp6461
F0
s(I0
(I1
I-10
I1
tp6462
tp6463
F-39.999780645321309
s(I0
(I9
I16
I4
tp6464
tp6465
F0
s(I0
(I8
I-3
I-1
tp6466
tp6467
F0.053019708834930304
s(I0
g5858
tp6468
F0
s(I0
g252
tp6469
F0
s(I0
g1004
tp6470
F-99.999983966216377
s(I1
g6452
tp6471
F-39.999994269546534
s(I1
(I1
I8
I2
tp6472
tp6473
F-39.999998385376415
s(I0
g5445
tp6474
F0
s(I1
g4504
tp6475
F0
s(I1
g1578
tp6476
F-14.403818840934823
s(I0
(I5
I-15
I4
tp6477
tp6478
F0
s(I0
g3389
tp6479
F0
s(I1
g2900
tp6480
F2.9988311862498158e-05
s(I0
g5328
tp6481
F0.16375060969974126
s(I1
g2141
tp6482
F0
s(I0
g6337
tp6483
F0
s(I0
(I2
I8
I-2
tp6484
tp6485
F0
s(I1
g3573
tp6486
F0
s(I1
(I10
I5
I-2
tp6487
tp6488
F0
s(I0
g2179
tp6489
F0.025893450026037095
s(I0
g4656
tp6490
F0
s(I1
g4737
tp6491
F-39.999425779702435
s(I0
(I2
I6
I4
tp6492
tp6493
F-99.999995432710321
s(I0
g2680
tp6494
F4.2259798448438453
s(I0
g2298
tp6495
F0.02572516030835403
s(I1
g5469
tp6496
F0
s(I0
(I10
I-13
I0
tp6497
tp6498
F0
s(I1
g5928
tp6499
F0.065542831526126902
s(I1
g4757
tp6500
F0
s(I1
(I8
I-14
I4
tp6501
tp6502
F0
s(I0
g1142
tp6503
F0
s(I0
(I0
I3
I-2
tp6504
tp6505
F0
s(I0
(I4
I0
I-1
tp6506
tp6507
F2.3301146370765839
s(I0
g3592
tp6508
F0
s(I0
(I1
I-4
I3
tp6509
tp6510
F0
s(I0
g4562
tp6511
F0.059504823968964185
s(I1
(I9
I2
I-2
tp6512
tp6513
F0
s(I0
g830
tp6514
F0
s(I0
g5768
tp6515
F0
s(I1
g5375
tp6516
F-95.704510499349112
s(I0
(I2
I5
I0
tp6517
tp6518
F-15.999964643872735
s(I0
(I1
I0
I1
tp6519
tp6520
F-39.989981795457474
s(I1
g5208
tp6521
F0
s(I1
(I1
I3
I-1
tp6522
tp6523
F39.802767641441186
s(I0
g6331
tp6524
F0
s(I1
g6369
tp6525
F0
s(I0
(I0
I-9
I3
tp6526
tp6527
F0
s(I0
(I4
I10
I1
tp6528
tp6529
F-99.988396936948959
s(I1
g354
tp6530
F-99.999992083145756
s(I1
g2850
tp6531
F6.396263543336115
s(I1
g1276
tp6532
F0
s(I0
g5060
tp6533
F0
s(I1
(I10
I5
I2
tp6534
tp6535
F0
s(I1
(I0
I8
I-2
tp6536
tp6537
F0
s(I0
(I0
I-16
I0
tp6538
tp6539
F0
s(I0
g5391
tp6540
F-99.999988874780016
s(I0
g5317
tp6541
F0.065542852955644326
s(I0
g5324
tp6542
F0
s(I1
g3464
tp6543
F0
s(I1
g6396
tp6544
F0
s(I1
g2249
tp6545
F-99.999985452572645
s(I1
g2866
tp6546
F-2.3486591625314035
s(I1
g6402
tp6547
F-9.0415134025935513e-05
s(I0
g6534
tp6548
F0
s(I0
(I1
I3
I2
tp6549
tp6550
F-40.000346882164088
s(I0
g4257
tp6551
F0
s(I0
(I8
I-16
I4
tp6552
tp6553
F0
s(I1
(I7
I-9
I4
tp6554
tp6555
F0
s(I0
g3636
tp6556
F-99.999988307221145
s(I1
g6413
tp6557
F-2.5599948432965896
s(I0
(I7
I14
I0
tp6558
tp6559
F0
s(I0
(I3
I-13
I1
tp6560
tp6561
F0
s(I0
g6419
tp6562
F-99.749928021234666
s(I1
(I8
I9
I-2
tp6563
tp6564
F0
s(I1
g656
tp6565
F-2.5597050932931897
s(I0
g4094
tp6566
F0
s(I0
g4663
tp6567
F0
s(I1
g5256
tp6568
F-2.5672493533941361
s(I1
(I2
I-4
I3
tp6569
tp6570
F0
s(I1
g3498
tp6571
F0
s(I0
g1469
tp6572
F-99.999969419485225
s(I0
g6186
tp6573
F-99.999961763809196
s(I1
(I7
I14
I1
tp6574
tp6575
F0
s(I0
g5429
tp6576
F0
s(I1
g1382
tp6577
F0
s(I1
g2916
tp6578
F0.33257321241135396
s(I1
g3706
tp6579
F0
s(I0
g4677
tp6580
F-6.3999646737137379
s(I1
g5856
tp6581
F0.14804119388233863
s(I1
g6450
tp6582
F-99.992631611002849
s(I1
g6019
tp6583
F0.40917933286248415
s(I1
g4509
tp6584
F0
s(I0
g4670
tp6585
F-94.998576201934654
s(I1
g4288
tp6586
F-13.766685961752806
s(I0
g3678
tp6587
F0
s(I0
g3524
tp6588
F0.026209951755605903
s(I0
g4294
tp6589
F0
s(I0
g4771
tp6590
F0
s(I0
g1303
tp6591
F0
s(I1
(I3
I-1
I-1
tp6592
tp6593
F-5.2419079089270317
s(I0
(I2
I5
I3
tp6594
tp6595
F-99.988588896782844
s(I0
g6383
tp6596
F0
s(I1
g4697
tp6597
F0
s(I1
g1424
tp6598
F0
s(I0
g4307
tp6599
F1.8361328420471832
s(I0
g1980
tp6600
F0
s(I1
g5557
tp6601
F16.00167456087458
s(I1
g6045
tp6602
F0.026217143550692157
s(I1
(I1
I15
I-2
tp6603
tp6604
F0
s(I0
g5389
tp6605
F0
s(I0
g1958
tp6606
F16.001676666355273
s(I0
g3624
tp6607
F-15.999393674826877
s(I1
g4887
tp6608
F-15.999957877342169
s(I1
g6497
tp6609
F0
s(I1
g5887
tp6610
F0
s(I0
(I9
I-13
I2
tp6611
tp6612
F0
s(I1
g1244
tp6613
F0.065542834166782346
s(I1
g721
tp6614
F0.0041118140139803361
s(I1
g4716
tp6615
F0
s(I0
(I10
I2
I1
tp6616
tp6617
F0
s(I1
(I6
I10
I3
tp6618
tp6619
F-0.37429606679455474
s(I1
g5131
tp6620
F0
s(I0
(I8
I-12
I-1
tp6621
tp6622
F-99.999961639439533
s(I0
g3375
tp6623
F-39.999786597060663
s(I0
g2690
tp6624
F0.026188338051064845
s(I0
g4800
tp6625
F0
s(I0
g5143
tp6626
F3.0818659367961993e-06
s(I0
(I2
I16
I-1
tp6627
tp6628
F0
s(I1
g4171
tp6629
F0.026217143217746576
s(I0
(I6
I-5
I3
tp6630
tp6631
F0
s(I1
(I0
I11
I1
tp6632
tp6633
F-99.999366044406614
s(I0
(I3
I-13
I-1
tp6634
tp6635
F0
s(I1
g1471
tp6636
F0
s(I1
g4913
tp6637
F-99.999887923512148
s(I0
g5503
tp6638
F-16.1992947787041
s(I0
g3617
tp6639
F0
s(I1
(I10
I14
I1
tp6640
tp6641
F0
s(I0
g2964
tp6642
F0
s(I1
g3971
tp6643
F-0.10680654522923666
s(I1
(I8
I11
I0
tp6644
tp6645
F0
s(I0
g5358
tp6646
F0
s(I0
(I2
I-10
I3
tp6647
tp6648
F0
s(I0
g2857
tp6649
F-15.764567366884769
s(I1
g6519
tp6650
F36.021452282575567
s(I1
(I9
I-9
I4
tp6651
tp6652
F0
s(I0
(I8
I4
I2
tp6653
tp6654
F-4.6994492596879525
s(I1
g573
tp6655
F-0.9442930066938926
s(I0
(I8
I-13
I3
tp6656
tp6657
F0
s(I1
g2292
tp6658
F0.026216535064049338
s(I0
(I5
I-12
I3
tp6659
tp6660
F0
s(I1
g5421
tp6661
F0
s(I0
g1938
tp6662
F0
s(I0
g4215
tp6663
F0
s(I1
g5727
tp6664
F0
s(I1
g4776
tp6665
F0.057634003747859312
s(I1
g3536
tp6666
F-15.999967937511677
s(I0
g3780
tp6667
F0
s(I1
g4379
tp6668
F0
s(I1
(I0
I13
I2
tp6669
tp6670
F0
s(I0
g6063
tp6671
F0
s(I0
g6084
tp6672
F0
s(I0
(I7
I12
I0
tp6673
tp6674
F0
s(I1
g6656
tp6675
F0
s(I1
(I3
I2
I-1
tp6676
tp6677
F6.4006573601370018
s(I1
g3695
tp6678
F0
s(I1
g4221
tp6679
F0
s(I1
g1688
tp6680
F-6.369604389530247
s(I1
g3727
tp6681
F-5.8189398826628089
s(I0
g2331
tp6682
F-99.762573263897735
s(I1
(I1
I-16
I4
tp6683
tp6684
F0
s(I1
(I2
I16
I2
tp6685
tp6686
F0
s(I0
g6163
tp6687
F0
s(I0
(I2
I-15
I1
tp6688
tp6689
F0
s(I1
(I2
I-13
I1
tp6690
tp6691
F0
s(I1
(I5
I-13
I1
tp6692
tp6693
F0
s(I0
(I2
I7
I-1
tp6694
tp6695
F-15.999996305319968
s(I1
g6484
tp6696
F0
s(I1
g5979
tp6697
F0
s(I0
g5075
tp6698
F0
s(I1
g4248
tp6699
F-38.244350876865639
s(I0
(I8
I-2
I4
tp6700
tp6701
F0
s(I1
g3721
tp6702
F0
s(I1
g5377
tp6703
F0
s(I1
g5214
tp6704
F0.792624446592191
s(I1
(I2
I15
I1
tp6705
tp6706
F0
s(I0
g5494
tp6707
F0
s(I0
g3830
tp6708
F-99.999874521928973
s(I0
(I9
I5
I4
tp6709
tp6710
F-99.999956932505611
s(I0
g2278
tp6711
F0
s(I1
(I1
I-9
I2
tp6712
tp6713
F-39.899838074719867
s(I1
g6134
tp6714
F-4.3382113231116222
s(I1
g3744
tp6715
F0
s(I1
g4821
tp6716
F0.16058972075685812
s(I1
g1621
tp6717
F0
s(I1
(I3
I1
I0
tp6718
tp6719
F5.8517075943388503
s(I0
g870
tp6720
F0
s(I0
g4828
tp6721
F0.065542446637932655
s(I0
g868
tp6722
F1.0161389680846802
s(I0
g5552
tp6723
F0.06520495637240234
s(I1
(I7
I3
I0
tp6724
tp6725
F0.16382594604772666
s(I0
g6263
tp6726
F-39.999415590793163
s(I1
(I2
I4
I-2
tp6727
tp6728
F0
s(I0
g5348
tp6729
F0
s(I0
g2380
tp6730
F0
s(I0
g4605
tp6731
F0
s(I0
g1659
tp6732
F0
s(I0
g1397
tp6733
F0
s(I1
(I6
I-12
I3
tp6734
tp6735
F0
s(I1
g1083
tp6736
F0
s(I1
g707
tp6737
F0
s(I0
(I1
I14
I1
tp6738
tp6739
F0
s(I0
g5647
tp6740
F0
s(I1
(I3
I2
I1
tp6741
tp6742
F6.3731526890055186
s(I0
(I2
I13
I-1
tp6743
tp6744
F0
s(I1
g5682
tp6745
F-39.99993682217
s(I1
(I8
I-7
I3
tp6746
tp6747
F0
s(I0
g4869
tp6748
F0.16085225183141078
s(I1
g1672
tp6749
F0
s(I0
g2403
tp6750
F2.5602653022420796
s(I0
g6123
tp6751
F100.01040950728483
s(I0
g4299
tp6752
F-99.999779285127161
s(I1
g6694
tp6753
F-15.999991307680814
s(I0
(I2
I10
I-1
tp6754
tp6755
F-15.999757210891419
s(I1
(I5
I7
I1
tp6756
tp6757
F0.93159898792441398
s(I0
(I5
I16
I-2
tp6758
tp6759
F0
s(I0
(I8
I2
I4
tp6760
tp6761
F-99.99980861368357
s(I1
g6630
tp6762
F0
s(I0
g4497
tp6763
F-99.999904542733972
s(I0
g31
tp6764
F0
s(I0
g5472
tp6765
F0
s(I0
g4340
tp6766
F0.40947631849729194
s(I1
(I10
I-14
I3
tp6767
tp6768
F0
s(I0
g1137
tp6769
F2.550328630873727
s(I1
g6427
tp6770
F-95.01910740557166
s(I0
g4599
tp6771
F0
s(I0
(I6
I-8
I3
tp6772
tp6773
F0
s(I0
g2233
tp6774
F0
s(I1
g2427
tp6775
F16.001676646416186
s(I0
g1459
tp6776
F0
s(I0
g4713
tp6777
F-95.001817193550366
s(I1
g6082
tp6778
F0
s(I1
g3719
tp6779
F0.065400278462400832
s(I1
g65
tp6780
F0
s(I0
g692
tp6781
F0.065168150595486585
s(I1
(I7
I14
I-2
tp6782
tp6783
F0
s(I0
(I5
I-3
I3
tp6784
tp6785
F1.0102896599050586
s(I1
(I9
I-11
I1
tp6786
tp6787
F-97.133436826976393
s(I1
(I6
I6
I0
tp6788
tp6789
F0.40964281369956923
s(I0
g3078
tp6790
F-19.989883355977554
s(I0
g3512
tp6791
F0
s(I1
(I5
I13
I-2
tp6792
tp6793
F0
s(I1
(I8
I-9
I0
tp6794
tp6795
F-2.1109927516747113
s(I0
g523
tp6796
F-99.999915740630144
s(I0
g2387
tp6797
F0
s(I1
g761
tp6798
F-99.999993062647022
s(I0
g4108
tp6799
F0
s(I1
g3039
tp6800
F0
s(I1
g4711
tp6801
F0
s(I0
g982
tp6802
F0
s(I1
g1736
tp6803
F0
s(I1
g5713
tp6804
F0
s(I0
g3756
tp6805
F0
s(I0
(I3
I6
I-1
tp6806
tp6807
F-6.3999965035581203
s(I0
g6234
tp6808
F0
s(I1
(I9
I12
I2
tp6809
tp6810
F0
s(I1
g2645
tp6811
F0
s(I0
g5540
tp6812
F0
s(I1
g3288
tp6813
F0
s(I1
(I2
I-5
I0
tp6814
tp6815
F-16.000263019166308
s(I1
g3184
tp6816
F0.16385487948261054
s(I1
g2501
tp6817
F0
s(I0
(I2
I0
I2
tp6818
tp6819
F-15.998729673524323
s(I1
g5958
tp6820
F0
s(I0
g6683
tp6821
F0
s(I0
g5010
tp6822
F-99.999736995216665
s(I1
g6700
tp6823
F0
s(I0
g1348
tp6824
F-95.00790908521661
s(I1
(I3
I-7
I-1
tp6825
tp6826
F-6.4769236201329576
s(I0
g6809
tp6827
F0
s(I0
g6692
tp6828
F0
s(I1
g4567
tp6829
F0
s(I1
g3270
tp6830
F0
s(I0
g6145
tp6831
F0
s(I0
g4873
tp6832
F0
s(I0
g3793
tp6833
F0
s(I0
g4390
tp6834
F0
s(I0
g5563
tp6835
F-97.007136741955577
s(I1
g3216
tp6836
F-2.5599964154230563
s(I1
(I8
I15
I4
tp6837
tp6838
F0
s(I1
g1291
tp6839
F0
s(I1
g23
tp6840
F0
s(I0
g6318
tp6841
F0
s(I1
g1573
tp6842
F-94.998836552122413
s(I1
(I-1
I-7
I4
tp6843
tp6844
F0
s(I0
g5362
tp6845
F0
s(I1
(I0
I-12
I3
tp6846
tp6847
F0
s(I1
(I0
I2
I2
tp6848
tp6849
F-99.999988708188411
s(I0
g3135
tp6850
F0
s(I0
g5414
tp6851
F0
s(I0
g1787
tp6852
F0
s(I1
g6274
tp6853
F0
s(I1
g5658
tp6854
F-5.0086808654401693
s(I0
g3223
tp6855
F0
s(I0
g6140
tp6856
F0
s(I1
g4915
tp6857
F-39.999999536694361
s(I1
g3810
tp6858
F0
s(I1
g5581
tp6859
F0
s(I0
g182
tp6860
F-39.999996271503477
s(I1
g4409
tp6861
F0.025913111817653746
s(I1
g6504
tp6862
F0
s(I0
g4461
tp6863
F0
s(I0
g4383
tp6864
F0
s(I0
g6846
tp6865
F0
s(I1
g4426
tp6866
F-0.11992339539168761
s(I1
g4985
tp6867
F-16.002676467880899
s(I0
g3613
tp6868
F0
s(I1
g3840
tp6869
F0.33831118843997487
s(I0
g3842
tp6870
F0
s(I1
g4436
tp6871
F0
s(I1
g6353
tp6872
F0.94841913803579503
s(I0
g3531
tp6873
F0
s(I0
g6166
tp6874
F0
s(I0
g877
tp6875
F0
s(I1
g6754
tp6876
F-15.999918568030326
s(I1
(I1
I-12
I0
tp6877
tp6878
F-99.999914617212454
s(I0
(I5
I15
I-1
tp6879
tp6880
F0
s(I0
(I3
I-15
I-1
tp6881
tp6882
F0
s(I0
(I-1
I-6
I1
tp6883
tp6884
F1.9619499192627235e-06
s(I1
(I9
I9
I3
tp6885
tp6886
F0.02621713846558181
s(I0
g2476
tp6887
F-99.999991301004187
s(I1
(I3
I15
I0
tp6888
tp6889
F0
s(I1
g417
tp6890
F-0.047707872934533685
s(I0
g6328
tp6891
F-15.999423583029893
s(I0
g4574
tp6892
F0
s(I1
(I2
I9
I2
tp6893
tp6894
F-15.999993473298741
s(I0
g5146
tp6895
F0.02621619568592223
s(I1
(I7
I-6
I4
tp6896
tp6897
F0
s(I1
g5275
tp6898
F0.026217146240748619
s(I0
g5718
tp6899
F100.0104866001073
s(I1
g6393
tp6900
F0
s(I1
g1668
tp6901
F0.33603107970001633
s(I1
g3873
tp6902
F-39.999873287447002
s(I0
g641
tp6903
F-5.5540451220043746e-06
s(I1
g204
tp6904
F-99.999968684117505
s(I1
(I4
I6
I1
tp6905
tp6906
F2.0425838697799583
s(I0
g4481
tp6907
F-2.5385108158341687
s(I1
g3291
tp6908
F-99.999914517630231
s(I0
g6782
tp6909
F0
s(I1
g5826
tp6910
F0
s(I0
g5633
tp6911
F-1.1198958913216384
s(I1
g6356
tp6912
F0
s(I0
g6893
tp6913
F-99.999782581223641
s(I1
(I6
I-5
I4
tp6914
tp6915
F0
s(I0
(I4
I-6
I4
tp6916
tp6917
F0
s(I0
g4652
tp6918
F6.4006699403215572
s(I0
g1393
tp6919
F0
s(I0
g6365
tp6920
F0
s(I1
g5736
tp6921
F6.3457867407026587
s(I0
(I0
I8
I3
tp6922
tp6923
F-99.999993371684297
s(I0
g409
tp6924
F0
s(I1
(I5
I13
I1
tp6925
tp6926
F0
s(I1
(I9
I-16
I-1
tp6927
tp6928
F0
s(I1
g4502
tp6929
F0
s(I0
g6227
tp6930
F0
s(I0
g427
tp6931
F-99.999924449154491
s(I0
g951
tp6932
F0
s(I1
g1444
tp6933
F0
s(I0
(I2
I-7
I2
tp6934
tp6935
F16.001313977742541
s(I1
(I1
I11
I0
tp6936
tp6937
F0
s(I0
g1952
tp6938
F0
s(I0
g5760
tp6939
F0.14703547795792268
s(I1
g6175
tp6940
F-95.062644429486355
s(I0
g6914
tp6941
F0
s(I0
(I10
I6
I2
tp6942
tp6943
F0
s(I0
g5113
tp6944
F0
s(I1
(I8
I11
I3
tp6945
tp6946
F-0.049813760221051828
s(I1
(I10
I-15
I3
tp6947
tp6948
F0
s(I0
g6301
tp6949
F-99.999960909847616
s(I0
g6877
tp6950
F-39.9994559208086
s(I1
g2187
tp6951
F0.4096423215532381
s(I1
(I10
I-6
I0
tp6952
tp6953
F0
s(I0
g5780
tp6954
F0
s(I0
g4134
tp6955
F0
s(I0
(I8
I-1
I4
tp6956
tp6957
F0
s(I1
g5125
tp6958
F0
s(I1
g2413
tp6959
F-15.99999691909999
s(I0
(I2
I10
I-2
tp6960
tp6961
F0
s(I0
g3352
tp6962
F0
s(I1
g5400
tp6963
F0
s(I0
g6472
tp6964
F-97.149637163483519
s(I0
(I9
I-1
I-1
tp6965
tp6966
F0.026080551563901769
s(I1
(I7
I14
I-1
tp6967
tp6968
F0
s(I0
g6148
tp6969
F0
s(I1
g1960
tp6970
F0.00011166662859640497
s(I1
g230
tp6971
F0
s(I0
g6603
tp6972
F0
s(I1
g1541
tp6973
F0.0262154660214108
s(I1
g3547
tp6974
F0
s(I0
g6284
tp6975
F-99.999980296780478
s(I1
g6956
tp6976
F0
s(I0
g1306
tp6977
F0
s(I1
(I4
I2
I-1
tp6978
tp6979
F2.5185476053832758
s(I1
(I2
I5
I4
tp6980
tp6981
F-14.556101861318654
s(I1
g3130
tp6982
F0
s(I0
(I1
I-16
I3
tp6983
tp6984
F0
s(I0
(I0
I-13
I1
tp6985
tp6986
F0
s(I0
g3965
tp6987
F0
s(I0
g5242
tp6988
F-0.2113415985427185
s(I0
g6487
tp6989
F0
s(I1
g3538
tp6990
F-4.8350977513095756
s(I1
g6558
tp6991
F0
s(I0
g2480
tp6992
F-16.000465358087119
s(I0
(I1
I4
I1
tp6993
tp6994
F-39.999997264222685
s(I0
g4764
tp6995
F0
s(I0
g6727
tp6996
F0
s(I0
g6967
tp6997
F0
s(I1
g4397
tp6998
F0
s(I0
g5157
tp6999
F-99.999787644518605
s(I1
g4839
tp7000
F-0.0017264113185566855
s(I1
g3150
tp7001
F-14.093939588381904
s(I1
g4980
tp7002
F0
s(I0
g2769
tp7003
F0.00054967960625186996
s(I1
g6983
tp7004
F0
s(I0
g2686
tp7005
F1.0709763761248414e-05
s(I0
g4358
tp7006
F0
s(I1
g1507
tp7007
F16.001413553129254
s(I1
g6509
tp7008
F0
s(I0
g6322
tp7009
F-15.999986892428758
s(I1
g5383
tp7010
F0
s(I1
g4180
tp7011
F0
s(I1
(I5
I0
I2
tp7012
tp7013
F0.7597917855492835
s(I1
g292
tp7014
F0
s(I0
g2760
tp7015
F0.02618594340268807
s(I0
g468
tp7016
F0
s(I1
g1274
tp7017
F0.1366306245004183
s(I0
g445
tp7018
F0
s(I1
g2085
tp7019
F0
s(I1
g5930
tp7020
F-2.5542202382744894
s(I0
g6299
tp7021
F0
s(I1
g6526
tp7022
F0
s(I0
(I5
I-10
I2
tp7023
tp7024
F0
s(I0
g5191
tp7025
F0
s(I1
g577
tp7026
F-0.43147931047601995
s(I0
g6885
tp7027
F-99.999913350212694
s(I1
g5198
tp7028
F-0.40695982770944283
s(I0
g3986
tp7029
F-99.999997985064752
s(I1
g5824
tp7030
F0
s(I1
g6349
tp7031
F0
s(I1
g4034
tp7032
F0.026205647528815587
s(I0
g1900
tp7033
F2.5591867337226777
s(I1
g3818
tp7034
F0
s(I1
g4130
tp7035
F0.4096425463146956
s(I1
g3884
tp7036
F0.40955418969588492
s(I0
(I4
I-3
I2
tp7037
tp7038
F2.5381743047241589
s(I0
g5954
tp7039
F0
s(I0
g1087
tp7040
F0
s(I0
g6442
tp7041
F-42.85713261007372
s(I1
g6212
tp7042
F0
s(I0
g5770
tp7043
F-12.879819546726043
s(I0
(I6
I-11
I2
tp7044
tp7045
F0
s(I1
g4695
tp7046
F0
s(I1
g4049
tp7047
F0
s(I0
g1864
tp7048
F0
s(I1
g6549
tp7049
F-36.199793719449865
s(I1
g2820
tp7050
F-3.7504485247482656e-05
s(I0
g5899
tp7051
F0
s(I0
(I8
I-8
I2
tp7052
tp7053
F0.065519957477161772
s(I0
(I0
I15
I-1
tp7054
tp7055
F0
s(I1
g639
tp7056
F0
s(I1
g2151
tp7057
F0
s(I1
g5013
tp7058
F0
s(I1
(I8
I-7
I1
tp7059
tp7060
F-0.1014181621303254
s(I0
g6734
tp7061
F0
s(I1
g2132
tp7062
F-0.0020092841229093035
s(I1
g2848
tp7063
F0
s(I1
g2173
tp7064
F-99.750539797932746
s(I1
(I4
I1
I1
tp7065
tp7066
F2.3485191195124866
s(I1
(I3
I16
I3
tp7067
tp7068
F0
s(I0
g2411
tp7069
F0.34870188171108235
s(I0
g451
tp7070
F0
s(I1
g3506
tp7071
F-0.04781922458888252
s(I1
g962
tp7072
F-99.999992361805852
s(I0
g4834
tp7073
F0
s(I0
g2749
tp7074
F5.7619654127167035
s(I0
g438
tp7075
F-99.999988283827179
s(I0
g1172
tp7076
F-4.8443052356704044
s(I0
g3069
tp7077
F0
s(I0
g1160
tp7078
F0
s(I0
g4117
tp7079
F-99.999969150346672
s(I1
g4679
tp7080
F0
s(I1
g5860
tp7081
F0.81255567732410949
s(I0
(I2
I12
I-2
tp7082
tp7083
F0
s(I1
(I0
I-9
I-1
tp7084
tp7085
F-99.999970949808059
s(I0
(I-1
I2
I4
tp7086
tp7087
F-99.999786203238131
s(I1
(I6
I14
I4
tp7088
tp7089
F0
s(I1
g3892
tp7090
F-15.999995929665268
s(I0
g6843
tp7091
F0
s(I1
g5700
tp7092
F-39.999989206497638
s(I1
(I7
I15
I-1
tp7093
tp7094
F0
s(I1
g5381
tp7095
F-39.999993357884428
s(I0
g589
tp7096
F0.32531492661000289
s(I0
(I7
I16
I1
tp7097
tp7098
F0
s(I1
g2005
tp7099
F0
s(I1
(I-1
I-10
I3
tp7100
tp7101
F0
s(I0
g1217
tp7102
F0
s(I0
g2914
tp7103
F0
s(I0
(I0
I14
I4
tp7104
tp7105
F0
s(I1
g7086
tp7106
F0.0001144521592275532
s(I0
(I0
I1
I3
tp7107
tp7108
F-99.999995741295393
s(I1
(I7
I2
I0
tp7109
tp7110
F0.16315116299361537
s(I1
g4720
tp7111
F0
s(I1
g6130
tp7112
F0
s(I1
g3017
tp7113
F0
s(I1
g5238
tp7114
F-39.999981545907609
s(I0
(I6
I2
I-1
tp7115
tp7116
F0.40954930928652672
s(I1
(I9
I-16
I1
tp7117
tp7118
F0
s(I0
(I4
I-9
I4
tp7119
tp7120
F0
s(I0
g1249
tp7121
F-99.999981095009574
s(I1
g7097
tp7122
F0
s(I0
g7100
tp7123
F0
s(I1
g1438
tp7124
F0
s(I1
g5101
tp7125
F0
s(I1
(I-1
I16
I3
tp7126
tp7127
F0
s(I0
g549
tp7128
F0
s(I0
g123
tp7129
F0
s(I1
g3663
tp7130
F0
s(I1
g7104
tp7131
F0
s(I0
g1993
tp7132
F0
s(I0
g3851
tp7133
F0
s(I1
g434
tp7134
F0
s(I1
g3877
tp7135
F16.001661243319983
s(I0
(I3
I-13
I3
tp7136
tp7137
F0
s(I1
g6616
tp7138
F0
s(I1
g4374
tp7139
F0
s(I1
g2883
tp7140
F0
s(I1
g6095
tp7141
F0
s(I1
g6659
tp7142
F0
s(I1
g3789
tp7143
F0
s(I1
g6466
tp7144
F0.04296897245245803
s(I1
g4010
tp7145
F-15.999909550001295
s(I1
(I2
I-10
I1
tp7146
tp7147
F-17.09301097167307
s(I1
g2969
tp7148
F0
s(I0
g3832
tp7149
F0
s(I0
g3586
tp7150
F0.026216227790015683
s(I0
g563
tp7151
F0
s(I0
g5455
tp7152
F0.02562168208842713
s(I0
g6632
tp7153
F-99.98748476642848
s(I0
(I9
I8
I-1
tp7154
tp7155
F0.026217132764635616
s(I0
g1282
tp7156
F-95.799993829895612
s(I0
(I2
I3
I0
tp7157
tp7158
F-15.848672796176007
s(I1
g1597
tp7159
F-99.999990925492
s(I1
(I2
I1
I0
tp7160
tp7161
F16.001668361952092
s(I0
(I8
I-13
I4
tp7162
tp7163
F0
s(I0
g6106
tp7164
F-99.999968968823282
s(I1
(I10
I-15
I1
tp7165
tp7166
F0
s(I1
g5046
tp7167
F-39.999381836598694
s(I1
g6021
tp7168
F-39.999441463734243
s(I1
g783
tp7169
F0.026217116514968924
s(I0
g1896
tp7170
F0
s(I1
(I9
I-10
I2
tp7171
tp7172
F0
s(I1
g1524
tp7173
F0
s(I0
g5447
tp7174
F0
s(I0
g5288
tp7175
F0
s(I1
g5946
tp7176
F0
s(I0
g4041
tp7177
F0
s(I0
g2985
tp7178
F0
s(I0
g3947
tp7179
F-99.99990910877473
s(I0
g3331
tp7180
F-39.999986978810362
s(I0
g2230
tp7181
F2.2713174169270056
s(I1
g6272
tp7182
F0.065542868476151137
s(I0
(I-1
I-16
I3
tp7183
tp7184
F0
s(I1
g1595
tp7185
F0
s(I1
(I3
I15
I1
tp7186
tp7187
F0
s(I1
(I6
I11
I3
tp7188
tp7189
F-0.40958617992930996
s(I0
g5462
tp7190
F0
s(I0
g5301
tp7191
F0
s(I1
g310
tp7192
F0
s(I0
g811
tp7193
F-99.999781093120035
s(I1
g5972
tp7194
F0
s(I1
g5729
tp7195
F0
s(I0
g4233
tp7196
F-95.800475818954354
s(I1
g6709
tp7197
F0.026209723560537194
s(I1
g6560
tp7198
F0
s(I0
g834
tp7199
F0
s(I1
(I10
I-1
I2
tp7200
tp7201
F0
s(I1
(I2
I-7
I-1
tp7202
tp7203
F-95.80998695346085
s(I0
g5182
tp7204
F0
s(I1
g3009
tp7205
F0
s(I0
g5862
tp7206
F0.026217141815945581
s(I1
g5227
tp7207
F1.6461032026922086e-05
s(I0
g1868
tp7208
F0
s(I1
g5652
tp7209
F6.4006360265697682
s(I0
g4922
tp7210
F0
s(I1
g2269
tp7211
F0
s(I0
(I0
I-14
I0
tp7212
tp7213
F0
s(I0
g4193
tp7214
F0.026201442547570983
s(I0
g633
tp7215
F0
s(I0
g3676
tp7216
F0.00016310301051333798
s(I0
g7093
tp7217
F0
s(I1
(I-1
I-13
I4
tp7218
tp7219
F0
s(I1
(I9
I13
I-2
tp7220
tp7221
F0
s(I0
(I0
I8
I2
tp7222
tp7223
F-99.999990874799892
s(I1
(I5
I2
I-1
tp7224
tp7225
F1.0223775281021883
s(I1
g1615
tp7226
F0
s(I1
g5506
tp7227
F0.065542867457459159
s(I0
g649
tp7228
F-99.999995978127487
s(I0
g3322
tp7229
F0
s(I1
g5356
tp7230
F0
s(I1
g3302
tp7231
F-5.1769831057935445
s(I0
g163
tp7232
F-99.999973519336535
s(I1
g5026
tp7233
F-99.998555014966328
s(I0
(I-1
I10
I1
tp7234
tp7235
F-99.98752964289929
s(I0
g1066
tp7236
F-0.22983380255327429
s(I0
g1822
tp7237
F3.7956571772501735e-05
s(I1
g7212
tp7238
F0
s(I1
g3435
tp7239
F0
s(I1
(I6
I12
I1
tp7240
tp7241
F0
s(I0
g5405
tp7242
F0
s(I1
g3308
tp7243
F0.40964292195465807
s(I1
g3457
tp7244
F0
s(I1
g5261
tp7245
F0
s(I0
g401
tp7246
F0
s(I1
g4046
tp7247
F0.026214947358244416
s(I0
g4858
tp7248
F0
s(I0
g1403
tp7249
F0
s(I0
(I4
I0
I0
tp7250
tp7251
F2.5592692408416844
s(I1
g7115
tp7252
F0.40312313389084614
s(I1
(I0
I-12
I-2
tp7253
tp7254
F0
s(I1
(I9
I5
I3
tp7255
tp7256
F0.026212612737389968
s(I1
(I8
I-14
I-1
tp7257
tp7258
F0
s(I1
g6132
tp7259
F0
s(I0
g19
tp7260
F0
s(I1
g7107
tp7261
F100.01048627902088
s(I1
(I7
I8
I4
tp7262
tp7263
F0.16385714680722777
s(I0
(I1
I12
I-1
tp7264
tp7265
F0
s(I0
g5527
tp7266
F0
s(I1
g6506
tp7267
F2.3280314886342932
s(I0
g5
tp7268
F0
s(I0
g6038
tp7269
F-99.999964066083464
s(I0
(I9
I-14
I1
tp7270
tp7271
F0
s(I1
(I9
I15
I0
tp7272
tp7273
F0
s(I0
g705
tp7274
F0
s(I0
g7126
tp7275
F0
s(I1
g5522
tp7276
F16.001502401644107
s(I1
g4121
tp7277
F0
s(I0
g5484
tp7278
F0
s(I0
g37
tp7279
F0
s(I0
(I2
I-8
I-1
tp7280
tp7281
F-16.000129540271395
s(I0
g1696
tp7282
F0
s(I0
(I3
I16
I0
tp7283
tp7284
F0
s(I1
g5044
tp7285
F-39.999965473117577
s(I1
g841
tp7286
F0
s(I0
g5310
tp7287
F0
s(I1
g5654
tp7288
F0
s(I1
g7270
tp7289
F0
s(I0
g5482
tp7290
F-39.999996715503869
s(I1
g6647
tp7291
F0
s(I0
g5178
tp7292
F0
s(I1
g2454
tp7293
F0
s(I1
(I0
I-4
I2
tp7294
tp7295
F-99.999976262329909
s(I1
g4337
tp7296
F-99.999969440340934
s(I1
g1978
tp7297
F0.40963714882648444
s(I0
g7200
tp7298
F0
s(I0
g3699
tp7299
F0
s(I0
g6848
tp7300
F-99.999994375218762
s(I1
g4098
tp7301
F-99.999990160575777
s(I0
(I2
I-5
I3
tp7302
tp7303
F0
s(I1
(I2
I-2
I-2
tp7304
tp7305
F0
s(I1
g6772
tp7306
F0
s(I1
g6492
tp7307
F-15.999993870532609
s(I0
g2267
tp7308
F0
s(I0
g3167
tp7309
F0.044438462220670202
s(I0
g773
tp7310
F0
s(I1
g3044
tp7311
F0
s(I0
g3690
tp7312
F0
s(I0
(I-1
I-5
I-1
tp7313
tp7314
F0.0012308110615434685
s(I1
(I5
I0
I4
tp7315
tp7316
F0
s(I0
g2276
tp7317
F0
s(I0
g4595
tp7318
F0
s(I0
g5613
tp7319
F0
s(I0
(I2
I-3
I3
tp7320
tp7321
F16.00166930489365
s(I1
g6784
tp7322
F-0.74151859249209551
s(I1
g6207
tp7323
F0
s(I0
g3804
tp7324
F-1.0239881802123914
s(I0
g2285
tp7325
F-40.007123429345789
s(I0
g4115
tp7326
F0
s(I1
g6960
tp7327
F0
s(I1
g781
tp7328
F0
s(I1
g6282
tp7329
F0
s(I1
g6114
tp7330
F0
s(I1
g2471
tp7331
F-0.45001318366232912
s(I1
g4554
tp7332
F0
s(I0
g7304
tp7333
F0
s(I1
g6818
tp7334
F15.856652067243207
s(I1
g138
tp7335
F-0.4094866609643571
s(I0
g998
tp7336
F0
s(I0
g4936
tp7337
F0
s(I1
(I1
I-12
I4
tp7338
tp7339
F0
s(I0
g7220
tp7340
F0
s(I0
g1189
tp7341
F8.3366390331473375e-05
s(I1
g7302
tp7342
F0
s(I0
(I2
I11
I0
tp7343
tp7344
F0
s(I1
g826
tp7345
F0
s(I0
g6089
tp7346
F0
s(I1
g5565
tp7347
F0.065542831461624332
s(I1
g1117
tp7348
F0
s(I0
(I9
I8
I-2
tp7349
tp7350
F0
s(I1
(I6
I10
I-1
tp7351
tp7352
F-0.40311915984360158
s(I1
g2107
tp7353
F0
s(I1
g5645
tp7354
F-99.999499566960679
s(I0
g6240
tp7355
F-99.999955456049904
s(I0
g4955
tp7356
F0
s(I0
(I8
I13
I2
tp7357
tp7358
F0
s(I1
g5584
tp7359
F0
s(I1
g2758
tp7360
F0
s(I0
g6173
tp7361
F90.010025039511888
s(I0
(I4
I3
I2
tp7362
tp7363
F-2.5253502074756766
s(I1
g3708
tp7364
F0
s(I0
g7160
tp7365
F16.001378234722647
s(I0
g6724
tp7366
F0.16385691173868644
s(I0
g4413
tp7367
F0
s(I1
(I8
I-11
I4
tp7368
tp7369
F0
s(I0
g4597
tp7370
F0.34568343474987723
s(I1
g6879
tp7371
F0
s(I0
g320
tp7372
F-20.190019355363901
s(I1
g879
tp7373
F-99.75962798322125
s(I1
g5512
tp7374
F0
s(I0
g3154
tp7375
F-6.7085403781410946
s(I1
g7250
tp7376
F1.8664989407708288
s(I0
g4781
tp7377
F0
s(I0
g6359
tp7378
F100.01048230186768
s(I0
g4990
tp7379
F0
s(I1
g5694
tp7380
F0
s(I0
g7368
tp7381
F0
s(I1
(I1
I5
I1
tp7382
tp7383
F-39.99999636585779
s(I1
g6634
tp7384
F0
s(I1
g5007
tp7385
F0
s(I1
g1883
tp7386
F0
s(I0
(I10
I8
I3
tp7387
tp7388
F0
s(I1
(I0
I7
I-1
tp7389
tp7390
F-99.999989448207273
s(I0
g910
tp7391
F0
s(I1
g996
tp7392
F0
s(I1
g6916
tp7393
F0
s(I0
g2389
tp7394
F0
s(I0
(I7
I5
I2
tp7395
tp7396
F-99.750209835455706
s(I0
g4957
tp7397
F1.0241057528089272
s(I0
g5149
tp7398
F-11.068300539887872
s(I0
g5291
tp7399
F0.024867872339325359
s(I1
g2165
tp7400
F16.001673321916456
s(I0
g5020
tp7401
F0
s(I0
g5151
tp7402
F0
s(I1
g1902
tp7403
F0
s(I1
(I1
I8
I0
tp7404
tp7405
F-39.999781892568549
s(I0
(I9
I-13
I3
tp7406
tp7407
F0
s(I1
g5514
tp7408
F0
s(I0
g5186
tp7409
F16.001474901639487
s(I1
(I7
I-16
I4
tp7410
tp7411
F0
s(I1
(I3
I4
I4
tp7412
tp7413
F6.4006597705750394
s(I0
g3137
tp7414
F0
s(I0
g25
tp7415
F0
s(I0
g3670
tp7416
F-95.542857069379409
s(I1
g7395
tp7417
F0.16382498349460128
s(I1
g1038
tp7418
F0
s(I1
g6517
tp7419
F-15.999912911718496
s(I0
g5573
tp7420
F0
s(I0
g1926
tp7421
F0
s(I0
g2657
tp7422
F0
s(I1
g5184
tp7423
F-96.822222722686405
s(I0
g1632
tp7424
F-99.999651578542952
s(I1
g6431
tp7425
F0.065539006539010389
s(I1
g7320
tp7426
F-15.999989677509678
s(I0
g7410
tp7427
F0
s(I0
g2441
tp7428
F0
s(I1
g7349
tp7429
F0
s(I1
g1174
tp7430
F0
s(I0
g6250
tp7431
F0
s(I0
g3990
tp7432
F-99.998592369546969
s(I0
g1761
tp7433
F-16.010465647301512
s(I0
g7315
tp7434
F0
s(I0
g1966
tp7435
F0
s(I1
g1712
tp7436
F-6.3999882638219088
s(I1
g5098
tp7437
F0
s(I0
g421
tp7438
F-99.989485973433744
s(I0
g5111
tp7439
F0
s(I1
g1716
tp7440
F0
s(I0
g4020
tp7441
F0
s(I0
g6896
tp7442
F0
s(I0
g69
tp7443
F-36.583446352288668
s(I1
(I1
I15
I2
tp7444
tp7445
F0
s(I0
g1753
tp7446
F0
s(I0
g346
tp7447
F0.026189529255675546
s(I1
(I8
I5
I0
tp7448
tp7449
F0.065540966770425049
s(I1
g5690
tp7450
F0
s(I0
g1091
tp7451
F0
s(I1
g1991
tp7452
F-95.004321476442513
s(I1
g2096
tp7453
F-40.007123639517602
s(I1
g5263
tp7454
F0
s(I1
(I0
I1
I-2
tp7455
tp7456
F0
s(I0
g5609
tp7457
F0
s(I1
g7157
tp7458
F16.001524882325164
s(I0
(I2
I7
I2
tp7459
tp7460
F-16.000496538159794
s(I1
g6002
tp7461
F0
s(I1
g6464
tp7462
F0
s(I1
g2360
tp7463
F0.026195862592545034
s(I0
g5225
tp7464
F0
s(I1
g488
tp7465
F0
s(I0
g5802
tp7466
F-99.999237234512705
s(I0
g5058
tp7467
F0
s(I0
g117
tp7468
F-39.999994238578275
s(I0
g1755
tp7469
F-6.3999979017257527
s(I0
g6952
tp7470
F0
s(I0
g7444
tp7471
F0
s(I1
g6286
tp7472
F0
s(I0
g6676
tp7473
F6.4006378169579081
s(I0
g5876
tp7474
F0
s(I1
g379
tp7475
F40.003773590317863
s(I1
(I4
I13
I-1
tp7476
tp7477
F0
s(I0
(I5
I-8
I1
tp7478
tp7479
F0.92776162010299168
s(I0
g3312
tp7480
F0.055612043479153127
s(I0
g2725
tp7481
F0
s(I1
(I10
I-4
I4
tp7482
tp7483
F0
s(I1
g3785
tp7484
F0
s(I0
g224
tp7485
F0
s(I1
g246
tp7486
F0
s(I0
g7109
tp7487
F0.16385208489349334
s(I1
g5120
tp7488
F0
s(I0
g7012
tp7489
F1.020103636275435
s(I0
g1764
tp7490
F-2.5599965227492572
s(I0
g4724
tp7491
F1.0236334207098796
s(I1
g262
tp7492
F0
s(I1
g419
tp7493
F0
s(I1
g7343
tp7494
F0
s(I0
g3350
tp7495
F90.484910705941104
s(I0
g276
tp7496
F0
s(I0
g157
tp7497
F-99.999847360649184
s(I0
g5837
tp7498
F0.061022697645951703
s(I1
g525
tp7499
F-0.16008298529291495
s(I1
g785
tp7500
F1.3199806596078943e-05
s(I0
(I1
I2
I2
tp7501
tp7502
F-39.999969831836097
s(I0
g6423
tp7503
F0
s(I0
g5842
tp7504
F0.16258798369832517
s(I0
g6644
tp7505
F0
s(I0
g6814
tp7506
F-15.916231097793791
s(I1
g6883
tp7507
F-0.00039594951438008674
s(I1
g1791
tp7508
F0
s(I0
g5269
tp7509
F0
s(I0
g4853
tp7510
F0
s(I0
g2764
tp7511
F0.065512217997059266
s(I1
g1052
tp7512
F0
s(I0
g5753
tp7513
F0.026177742008068161
s(I0
g2766
tp7514
F0
s(I1
(I0
I4
I2
tp7515
tp7516
F-99.999786926591256
s(I1
g5277
tp7517
F-99.999913051692062
s(I1
g254
tp7518
F0
s(I0
g4762
tp7519
F-0.26415800555517854
s(I0
g1679
tp7520
F0
s(I0
g2911
tp7521
F0
s(I0
g6888
tp7522
F0
s(I1
(I10
I-9
I-1
tp7523
tp7524
F0
s(I0
g3496
tp7525
F-99.999983598479076
s(I1
g2575
tp7526
F0
s(I0
g7523
tp7527
F0
s(I1
g1205
tp7528
F-0.4033697954271469
s(I1
g1852
tp7529
F0.1637935055506681
s(I1
g7052
tp7530
F0.037209501565422964
s(I0
g1856
tp7531
F0
s(I0
(I4
I-6
I0
tp7532
tp7533
F2.4990330831644463
s(I0
g1515
tp7534
F-15.999997286150125
s(I0
g5788
tp7535
F0
s(I1
g5880
tp7536
F0
s(I1
g4793
tp7537
F-99.99998732757274
s(I1
g7023
tp7538
F0
s(I0
g3405
tp7539
F0
s(I0
g7404
tp7540
F-39.999423124022563
s(I0
g507
tp7541
F0
s(I1
g5703
tp7542
F0.026217147709345509
s(I0
g2997
tp7543
F0
s(I1
g1223
tp7544
F-15.99999108383215
s(I1
g2092
tp7545
F0
s(I1
g6881
tp7546
F0
s(I0
g373
tp7547
F0.065264862627821871
s(I0
g2608
tp7548
F0
s(I0
(I2
I14
I-1
tp7549
tp7550
F0
s(I1
g7037
tp7551
F-2.2933803058654081
s(I1
g6922
tp7552
F-99.999978371015416
s(I0
g1475
tp7553
F1.2443861506122275e-05
s(I1
g3765
tp7554
F0
s(I1
g3423
tp7555
F0
s(I1
(I5
I-1
I1
tp7556
tp7557
F0.90110231469179747
s(I0
g1483
tp7558
F5.760711276359932
s(I1
(I2
I8
I0
tp7559
tp7560
F-15.999984941019408
s(I1
g1255
tp7561
F0
s(I0
g2709
tp7562
F0
s(I0
g7084
tp7563
F-99.998567757684583
s(I0
(I3
I9
I2
tp7564
tp7565
F-99.999968786687404
s(I0
g6574
tp7566
F0
s(I0
g6794
tp7567
F0.064622386858256289
s(I0
g4005
tp7568
F-6.3999250019153973
s(I0
(I8
I-1
I0
tp7569
tp7570
F0.065360541555552237
s(I1
(I9
I12
I-1
tp7571
tp7572
F0
s(I1
(I9
I7
I4
tp7573
tp7574
F0.026217124653501855
s(I1
g2169
tp7575
F0
s(I1
g5869
tp7576
F2.5493042098382634
s(I0
g6945
tp7577
F-99.999440722345497
s(I0
g6947
tp7578
F0
s(I0
g453
tp7579
F0
s(I1
g3033
tp7580
F-15.999994070238911
s(I1
g4645
tp7581
F-99.992625735320985
s(I0
g4749
tp7582
F0
s(I0
(I10
I7
I1
tp7583
tp7584
F0
s(I0
g5922
tp7585
F-99.999991928755236
s(I1
g862
tp7586
F0
s(I1
g1231
tp7587
F0
s(I1
g1178
tp7588
F0
s(I1
g7564
tp7589
F-6.3999984490261843
s(I0
g3053
tp7590
F0
s(I1
g7569
tp7591
F0.065269336355060298
s(I0
g7455
tp7592
F0
s(I0
g3237
tp7593
F0
s(I0
g2197
tp7594
F-40.000276168604209
s(I1
g7183
tp7595
F0
s(I1
(I6
I13
I0
tp7596
tp7597
F0
s(I0
g5033
tp7598
F0
s(I0
g3473
tp7599
F0
s(I1
(I6
I-3
I1
tp7600
tp7601
F0.29868944375881173
s(I0
g7067
tp7602
F0
s(I1
g7583
tp7603
F0
s(I1
g4860
tp7604
F0
s(I1
g470
tp7605
F0
s(I0
g3489
tp7606
F0
s(I0
g1775
tp7607
F0
s(I1
g7478
tp7608
F-1.075266296384906
s(I0
(I9
I-6
I3
tp7609
tp7610
F0
s(I1
g6462
tp7611
F-39.999980662380239
s(I1
g4877
tp7612
F0
s(I0
g5028
tp7613
F-15.999968036692632
s(I1
g3599
tp7614
F-15.999971729323686
s(I1
g6552
tp7615
F0
s(I1
g3304
tp7616
F0.16001255262059433
s(I1
g5884
tp7617
F0
s(I1
g6477
tp7618
F0
s(I0
g3104
tp7619
F0
s(I0
g5813
tp7620
F0
s(I1
g3563
tp7621
F0
s(I1
g4157
tp7622
F-6.399984336942147
s(I0
g1240
tp7623
F0
s(I1
g1352
tp7624
F-6.3997870003402042
s(I0
g6569
tp7625
F0
s(I0
g6980
tp7626
F-99.999894412957815
s(I0
g533
tp7627
F-6.3740307902405631
s(I1
g5896
tp7628
F-99.999598239970652
s(I1
g4241
tp7629
F2.5602679636690464
s(I1
g4166
tp7630
F0
s(I1
g4542
tp7631
F0
s(I1
g635
tp7632
F0.021480954748488896
s(I0
g5407
tp7633
F2.5602661368486683
s(I0
g5905
tp7634
F0
s(I1
g3132
tp7635
F0
s(I0
g3418
tp7636
F-99.999998053334821
s(I0
g6705
tp7637
F0
s(I0
(I10
I-15
I4
tp7638
tp7639
F0
s(I0
g1269
tp7640
F0
s(I0
g7117
tp7641
F0
s(I1
(I6
I-10
I3
tp7642
tp7643
F0
s(I0
g2122
tp7644
F9.0893316324059704e-05
s(I1
g5844
tp7645
F-2.5488857163005747
s(I1
g3922
tp7646
F0
s(I0
g4434
tp7647
F0.065542850852896462
s(I1
g3953
tp7648
F0
s(I0
g565
tp7649
F0
s(I0
(I9
I-4
I4
tp7650
tp7651
F0
s(I0
g4753
tp7652
F0
s(I1
g1686
tp7653
F-39.999998028790387
s(I1
g2474
tp7654
F0
s(I1
g5442
tp7655
F-36.450668973116031
s(I0
g5546
tp7656
F-5.3991679974189424
s(I1
g6023
tp7657
F0.065542857673080684
s(I1
g7044
tp7658
F0
s(I0
g7642
tp7659
F0
s(I0
g2988
tp7660
F0
s(I0
g4773
tp7661
F-99.999993932909689
s(I1
g3713
tp7662
F-99.99997362567737
s(I0
g3647
tp7663
F0
s(I1
g2794
tp7664
F0
s(I0
g3074
tp7665
F0.40964066130435228
s(I1
g115
tp7666
F-0.26764118778653545
s(I1
(I2
I10
I3
tp7667
tp7668
F-15.999982578192762
s(I1
g7162
tp7669
F0
s(I0
g6386
tp7670
F0
s(I0
g653
tp7671
F-39.999981693812941
s(I1
g4648
tp7672
F0
s(I0
g4225
tp7673
F0
s(I0
g7059
tp7674
F0.055563987169672535
s(I0
g6927
tp7675
F0
s(I1
g6627
tp7676
F0
s(I0
g973
tp7677
F-99.999920390258524
s(I0
g1442
tp7678
F0
s(I1
g2134
tp7679
F5.213542361928786
s(I1
(I0
I9
I4
tp7680
tp7681
F-99.999998069199307
s(I1
g1334
tp7682
F0.08908240987905594
s(I1
(I3
I15
I2
tp7683
tp7684
F0
s(I1
g6059
tp7685
F6.4005188708030225
s(I1
g7222
tp7686
F-99.999969316353386
s(I1
g7154
tp7687
F0.02621706642165544
s(I1
g3100
tp7688
F0.40057657101470889
s(I0
g5593
tp7689
F0
s(I0
g6056
tp7690
F100.0104746810013
s(I0
g7065
tp7691
F2.3506638802333075
s(I0
g4243
tp7692
F0.026182458877477426
s(I1
g6965
tp7693
F0.026073932897506241
s(I1
g6087
tp7694
F-5.4615804565728467
s(I0
g7556
tp7695
F1.0240831667752808
s(I0
(I0
I-6
I3
tp7696
tp7697
F0
s(I0
g4808
tp7698
F0
s(I1
g5343
tp7699
F0
s(I1
(I6
I4
I2
tp7700
tp7701
F0.40955549035079153
s(I0
(I9
I15
I-1
tp7702
tp7703
F0
s(I0
g4174
tp7704
F0.063977448123817296
s(I0
g3037
tp7705
F0
s(I0
g7240
tp7706
F0
s(I1
g789
tp7707
F0
s(I1
g4983
tp7708
F-39.999979726174509
s(I0
g872
tp7709
F0.16378318427055441
s(I1
g5313
tp7710
F-2.5599863719179488
s(I0
g5994
tp7711
F0
s(I1
g5674
tp7712
F-15.999924707200481
s(I1
(I10
I-9
I3
tp7713
tp7714
F0
s(I1
g1626
tp7715
F-99.999990487785382
s(I0
g765
tp7716
F0
s(I0
g6741
tp7717
F-5.23748063734981
s(I1
(I3
I9
I1
tp7718
tp7719
F-6.3999186355461299
s(I0
g6746
tp7720
F0
s(I0
g7262
tp7721
F-99.999997565260287
s(I1
g1148
tp7722
F-0.026155041306796772
s(I0
g6669
tp7723
F0
s(I1
g7702
tp7724
F0
s(I1
g1645
tp7725
F-99.99879988742866
s(I1
g5535
tp7726
F0
s(I1
(I2
I-9
I2
tp7727
tp7728
F-16.000011361082272
s(I1
g7609
tp7729
F0
s(I0
g4071
tp7730
F0
s(I1
g1654
tp7731
F40.004161835619342
s(I0
(I0
I6
I1
tp7732
tp7733
F-99.999994022170412
s(I0
g4284
tp7734
F0
s(I0
g791
tp7735
F9.4089501988003249e-05
s(I1
g5894
tp7736
F0
s(I1
g2881
tp7737
F0
s(I0
g4206
tp7738
F100.01048683559125
s(I1
(I0
I-12
I0
tp7739
tp7740
F-99.999845139327135
s(I1
g6611
tp7741
F0
s(I1
g6688
tp7742
F0
s(I0
g3410
tp7743
F0.83499780459579753
s(I1
g314
tp7744
F0
s(I0
g4370
tp7745
F0
s(I0
g6618
tp7746
F-99.999966175787705
s(I1
g5964
tp7747
F0
s(I0
g698
tp7748
F0
s(I1
g4432
tp7749
F0
s(I1
g2613
tp7750
F0.15276637943448215
s(I1
g6159
tp7751
F0.00055054004506747327
s(I1
g5037
tp7752
F0.065542712140024328
s(I0
(I3
I-4
I1
tp7753
tp7754
F5.8514320828966877
s(I0
g6052
tp7755
F0
s(I1
g1034
tp7756
F-1.3791938702643316e-05
s(I1
g180
tp7757
F-4.7244801713080591
s(I0
g4492
tp7758
F0
s(I0
g6788
tp7759
F-0.29337520152989349
s(I0
g1581
tp7760
F-99.999964683391212
s(I1
g7
tp7761
F0
s(I1
(I10
I-4
I1
tp7762
tp7763
F0
s(I1
g3659
tp7764
F0.021879663734911216
s(I0
g1388
tp7765
F2.2054800485880221e-05
s(I1
(I8
I13
I3
tp7766
tp7767
F0
s(I0
g6177
tp7768
F0
s(I0
g7272
tp7769
F0
s(I0
g7683
tp7770
F0
s(I1
(I10
I-16
I1
tp7771
tp7772
F0
s(I0
g5221
tp7773
F2.3118958485946714e-06
s(I1
g6594
tp7774
F-15.999987771904859
s(I1
g4332
tp7775
F0
s(I0
g3682
tp7776
F0
s(I1
g2456
tp7777
F-99.99983884144865
s(I1
(I-1
I-1
I-2
tp7778
tp7779
F0
s(I1
g777
tp7780
F-99.999998395154648
s(I0
(I0
I8
I0
tp7781
tp7782
F-99.999997712785472
s(I1
g3293
tp7783
F0
s(I1
g6653
tp7784
F0.065500060805086247
s(I0
g3973
tp7785
F0.12166337806978873
s(I1
g5661
tp7786
F0
s(I0
g6092
tp7787
F0
s(I0
g1487
tp7788
F-6.369593193517022
s(I0
g7667
tp7789
F-99.999783697519575
s(I0
g7771
tp7790
F0
s(I0
g2959
tp7791
F0.065481291360487484
s(I1
g6099
tp7792
F0
s(I1
g1641
tp7793
F0
s(I0
g6685
tp7794
F0
s(I1
g2825
tp7795
F-2.7117266220556391
s(I0
g3628
tp7796
F0
s(I0
g2055
tp7797
F0
s(I0
g5196
tp7798
F14.405572095212095
s(I0
g1651
tp7799
F0.85600236145249531
s(I0
g5436
tp7800
F2.3310954828998414
s(I0
g2491
tp7801
F0
s(I0
g6157
tp7802
F0
s(I0
g941
tp7803
F0
s(I0
g2011
tp7804
F2.5471482693834542
s(I0
g4640
tp7805
F-99.999998238637559
s(I1
g1040
tp7806
F40.004176612556606
s(I0
g1517
tp7807
F0
s(I0
g6756
tp7808
F-5.7253543318237803
s(I1
g4407
tp7809
F-39.994993403984992
s(I0
g4075
tp7810
F0
s(I1
g3723
tp7811
F-15.999984574982737
s(I0
g174
tp7812
F0
s(I0
g4988
tp7813
F0
s(I0
g2506
tp7814
F7.5357911333750567e-06
s(I0
g6126
tp7815
F0
s(I0
g3158
tp7816
F-99.999967044925697
s(I0
g2992
tp7817
F0
s(I1
g248
tp7818
F0
s(I0
g395
tp7819
F0
s(I1
g6621
tp7820
F-99.999982894364038
s(I0
g4551
tp7821
F39.995109791734365
s(I1
g2523
tp7822
F6.3410433346439135
s(I0
g5467
tp7823
F-4.7618717378568221
s(I1
g2525
tp7824
F0.16385713665294122
s(I1
g3649
tp7825
F0
s(I0
g43
tp7826
F-3.8947288333001495
s(I1
g436
tp7827
F0
s(I1
g6066
tp7828
F0
s(I1
g188
tp7829
F0
s(I0
g5650
tp7830
F-99.999997385495689
s(I0
g3738
tp7831
F-99.750910674794042
s(I1
g4718
tp7832
F1.0241053654226353
s(I0
g1386
tp7833
F0
s(I0
g2543
tp7834
F-99.999891632606733
s(I1
(I8
I13
I4
tp7835
tp7836
F0
s(I1
g1807
tp7837
F0
s(I0
g7718
tp7838
F-95.320026120594079
s(I1
g1587
tp7839
F-6.3724497623479213
s(I0
g2604
tp7840
F0
s(I1
g5457
tp7841
F-1.000602422758025
s(I0
(I10
I10
I2
tp7842
tp7843
F0
s(I1
g7264
tp7844
F0
s(I1
g1604
tp7845
F-0.029510474694722788
s(I1
g748
tp7846
F0
s(I0
g6256
tp7847
F6.4006674995841601
s(I0
g1606
tp7848
F0
s(I0
g7382
tp7849
F-40.000269592788264
s(I0
g541
tp7850
F0.13823383158203309
s(I0
g278
tp7851
F0
s(I0
g7727
tp7852
F14.326037634609392
s(I1
g752
tp7853
F1.0491700518118859e-05
s(I0
(I10
I15
I-1
tp7854
tp7855
F0
s(I0
g332
tp7856
F0
s(I1
g4959
tp7857
F0.05798820003635885
s(I1
g5516
tp7858
F0
s(I1
g805
tp7859
F3.2712124536467349e-05
s(I1
g6738
tp7860
F0
s(I1
g208
tp7861
F0
s(I0
g7257
tp7862
F0
s(I1
g4569
tp7863
F0
s(I1
g7842
tp7864
F0
s(I0
(I10
I15
I1
tp7865
tp7866
F0
s(I0
g89
tp7867
F-99.999990830601377
s(I0
(I8
I-11
I1
tp7868
tp7869
F0.06031647981072584
s(I0
g771
tp7870
F-99.857475328415475
s(I0
g1643
tp7871
F0.064975536613327736
s(I0
g1602
tp7872
F0.16385708210741842
s(I0
g5001
tp7873
F-99.999968869031505
s(I1
g2873
tp7874
F1.0241071515348921
s(I0
g234
tp7875
F0
s(I0
g2800
tp7876
F0.19444136350076041
s(I1
g4875
tp7877
F1.0196484420604017
s(I0
g5077
tp7878
F-6.3999879212717241
s(I0
g6837
tp7879
F0
s(I0
g7412
tp7880
F-99.99999810241016
s(I1
g2545
tp7881
F0
s(I1
g308
tp7882
F0
s(I0
g914
tp7883
F0
s(I1
g6760
tp7884
F0.065527884417980742
s(I0
g6034
tp7885
F0
s(I1
g4363
tp7886
F0
s(I0
g545
tp7887
F0
s(I0
(I9
I4
I1
tp7888
tp7889
F0.014339030719248996
s(I0
g6767
tp7890
F0
s(I1
g3533
tp7891
F-6.3999979387909045
s(I1
g7283
tp7892
F0
s(I1
g264
tp7893
F2.2721941426747807
s(I0
g5023
tp7894
F0
s(I0
g5559
tp7895
F-99.999960879516763
s(I1
g5731
tp7896
F-6.3999948986306405
s(I0
g2682
tp7897
F1.5528064342669431e-05
s(I0
g6936
tp7898
F0
s(I1
g2626
tp7899
F0
s(I0
g2418
tp7900
F-99.99998764225964
s(I0
g3621
tp7901
F0.068837510012743852
s(I0
(I2
I-16
I4
tp7902
tp7903
F0
s(I0
g1364
tp7904
F-39.99996133542777
s(I1
g97
tp7905
F0.40590140112020484
s(I1
g4352
tp7906
F0.065528070667606145
s(I0
g288
tp7907
F0
s(I0
g7294
tp7908
F-99.999988580680622
s(I1
g7781
tp7909
F-99.99999815041437
s(I0
g5576
tp7910
F-4.9851460675234733
s(I0
(I10
I15
I3
tp7911
tp7912
F0
s(I0
g6786
tp7913
F0.026086482078339093
s(I1
g6170
tp7914
F-0.23771722071905937
s(I0
g4507
tp7915
F0
s(I0
g4559
tp7916
F0
s(I1
g6333
tp7917
F0
s(I1
g5586
tp7918
F4.431674064076996e-05
s(I1
g2435
tp7919
F1.8195581556161846
s(I0
g7218
tp7920
F0
s(I0
g49
tp7921
F0
s(I0
g6342
tp7922
F0
s(I1
g5286
tp7923
F0
s(I0
g591
tp7924
F0
s(I1
g7902
tp7925
F0
s(I0
g6253
tp7926
F0.93986066562723403
s(I1
g6110
tp7927
F16.001620825356706
s(I0
g3909
tp7928
F0.16385364195301869
s(I1
g6312
tp7929
F0.13232222373058647
s(I0
g1831
tp7930
F0
s(I0
g5202
tp7931
F0.06483547088390211
s(I0
g6522
tp7932
F-39.999997286538964
s(I0
g3868
tp7933
F0.16382174676345235
s(I0
g1446
tp7934
F-6.5539139352672029
s(I1
g4891
tp7935
F0
s(I1
g4830
tp7936
F-99.996204849646915
s(I1
g5960
tp7937
F0
s(I0
g2040
tp7938
F3.2297743677444061e-05
s(I0
g3316
tp7939
F0
s(I0
g1848
tp7940
F0
s(I1
g1995
tp7941
F-99.999998340393404
s(I0
g3019
tp7942
F0
s(I0
g2352
tp7943
F-99.751034888200124
s(I1
g3896
tp7944
F0.10674581337156658
s(I0
g107
tp7945
F0
s(I0
g5793
tp7946
F0
s(I1
g1885
tp7947
F2.058532872269331
s(I1
g4636
tp7948
F0
s(I0
g5229
tp7949
F-99.999995328532592
s(I0
g5600
tp7950
F0
s(I1
g908
tp7951
F0
s(I1
g5926
tp7952
F0
s(I1
g5416
tp7953
F0
s(I1
(I8
I-16
I1
tp7954
tp7955
F0
s(I0
g7351
tp7956
F-0.34153555198544044
s(I0
g196
tp7957
F0
s(I0
g1123
tp7958
F0
s(I0
g6825
tp7959
F-6.399997129046441
s(I0
g927
tp7960
F0
s(I0
g6405
tp7961
F-39.99992552668607
s(I1
(I-1
I3
I-2
tp7962
tp7963
F0
s(I1
g7313
tp7964
F-5.9395964303334404e-05
s(I0
g5635
tp7965
F6.4006671304258163
s(I1
g7362
tp7966
F2.5602658127687605
s(I1
g1023
tp7967
F-4.8031217365923453
s(I1
g2051
tp7968
F0.026215508244075102
s(I1
g7854
tp7969
F0
s(I0
(I6
I12
I0
tp7970
tp7971
F0
s(I1
g415
tp7972
F-0.40464809304664406
s(I0
g947
tp7973
F0.064704652625455494
s(I0
g3028
tp7974
F15.922387443817492
s(I0
(I6
I15
I-1
tp7975
tp7976
F0
s(I1
g953
tp7977
F0
s(I1
g1795
tp7978
F-6.3999075224547841
s(I1
(I0
I9
I2
tp7979
tp7980
F-99.999998846811394
s(I1
g2073
tp7981
F-36.947144672578844
s(I0
g7559
tp7982
F-15.999995363648551
s(I1
g6335
tp7983
F-95.808360919828587
s(I0
(I5
I7
I4
tp7984
tp7985
F-99.999450302529809
s(I1
(I7
I0
I-1
tp7986
tp7987
F0.14232963905587312
s(I1
g1054
tp7988
F-0.0069092545488489421
s(I1
g958
tp7989
F-0.14439721870323516
s(I1
g7532
tp7990
F-2.5605058708271327
s(I1
g5279
tp7991
F0
s(I0
g7596
tp7992
F0
s(I1
g7970
tp7993
F0
s(I0
g194
tp7994
F0
s(I1
g1378
tp7995
F-41.766195496914399
s(I1
g7501
tp7996
F40.00418850356877
s(I1
g461
tp7997
F-6.476044608153054
s(I1
g7387
tp7998
F0
s(I0
g4601
tp7999
F0
s(I0
g3981
tp8000
F1.8409477626732058
s(I0
g6265
tp8001
F0
s(I1
g2458
tp8002
F7.7083834647077507e-05
s(I1
g7975
tp8003
F0
s(I0
g1197
tp8004
F-39.999949617147998
s(I1
g2786
tp8005
F40.004136909572011
s(I1
g6985
tp8006
F0
s(I1
(I10
I10
I1
tp8007
tp8008
F0
s(I0
g848
tp8009
F0
s(I1
g7082
tp8010
F0
s(I0
g1858
tp8011
F0
s(I1
g6993
tp8012
F-39.999784094659518
s(I1
g7888
tp8013
F0.02621594056681702
s(I0
g5525
tp8014
F-4.9880162057879005
s(I0
g5451
tp8015
F0.92646721161781354
s(I1
g6377
tp8016
F0
s(I0
g6417
tp8017
F0.064155052161952567
s(I0
g6905
tp8018
F-2.5588508338972602
s(I0
(I5
I6
I3
tp8019
tp8020
F-99.999993810981167
s(I0
g6278
tp8021
F0.026194687248717752
s(I0
g6536
tp8022
F0
s(I1
g7406
tp8023
F0
s(I1
(I2
I-5
I4
tp8024
tp8025
F0
s(I1
g5141
tp8026
F0
s(I0
g535
tp8027
F-99.999452531608497
s(I0
g7448
tp8028
F0.065542822338991155
s(I0
g1265
tp8029
F2.5380333189420474
s(I0
g7571
tp8030
F0
s(I1
g2715
tp8031
F0
s(I0
g1113
tp8032
F0
s(I0
g6925
tp8033
F0
s(I1
g7911
tp8034
F0
s(I0
g1251
tp8035
F0
s(I0
g5154
tp8036
F0
s(I1
g6112
tp8037
F0
s(I1
g2834
tp8038
F-0.35449402175419242
s(I1
g6305
tp8039
F0
s(I1
g3011
tp8040
F-2.5351299700693528
s(I0
g539
tp8041
F-99.999962085345516
s(I0
g338
tp8042
F6.4004164499402734
s(I1
g1257
tp8043
F0.40964269840649176
s(I1
g3684
tp8044
F0
s(I1
(I5
I6
I-1
tp8045
tp8046
F1.024106311772726
s(I1
g3268
tp8047
F-99.999994040817512
s(I0
g5697
tp8048
F0.026205224276917974
s(I0
g6501
tp8049
F0
s(I1
g6942
tp8050
F0
s(I1
g5167
tp8051
F0.065537493106125722
s(I0
g734
tp8052
F0.16375109057887749
s(I0
(I6
I-9
I3
tp8053
tp8054
F0
s(I1
g5175
tp8055
F0
s(I1
g5745
tp8056
F0
s(I0
g8045
tp8057
F1.0240877630994292
s(I0
g3452
tp8058
F0.16317947866961097
s(I0
g5360
tp8059
F-7.4204135396044819
s(I1
(I8
I4
I3
tp8060
tp8061
F0.065535105763083801
s(I1
g298
tp8062
F0.40964263051958411
s(I1
g1166
tp8063
F0
s(I0
g7088
tp8064
F0
s(I1
g1943
tp8065
F-1.8520101155297013
s(I1
(I3
I-5
I1
tp8066
tp8067
F-6.4796404641781367
s(I1
g5933
tp8068
F0
s(I1
g6528
tp8069
F-2.5599986784896691
s(I0
g7573
tp8070
F-99.999988491532719
s(I0
g7224
tp8071
F0.9275285747551274
s(I0
g7778
tp8072
F0
s(I0
g3300
tp8073
F-99.998568376277433
s(I0
g5949
tp8074
F0
s(I0
g8060
tp8075
F-95.00855391239179
s(I1
g5811
tp8076
F0
s(I0
g615
tp8077
F0
s(I1
g5548
tp8078
F-19.752951072072875
s(I0
g4548
tp8079
F0
s(I0
g2696
tp8080
F-97.142840069304981
s(I1
g2155
tp8081
F-6.3999948690608157
s(I0
g8066
tp8082
F6.3959833528658931
s(I0
g7954
tp8083
F0
s(I0
g2214
tp8084
F-0.010509497777216912
s(I1
g6374
tp8085
F0
s(I1
g5071
tp8086
F0.060587335445398148
s(I0
g7482
tp8087
F0
s(I1
g7119
tp8088
F0
s(I0
g7600
tp8089
F0.37922172702316431
s(I0
g6554
tp8090
F0
s(I0
g6978
tp8091
F2.5486102686597354
s(I1
g3515
tp8092
F0
s(I0
g6592
tp8093
F5.7638075936941116
s(I0
g1111
tp8094
F-95.799998114821108
s(I0
g1176
tp8095
F0.065520951987953074
s(I0
g7202
tp8096
F-15.9999158413268
s(I1
g4745
tp8097
F0
s(I1
g4123
tp8098
F-6.3986676658378618
s(I1
g7136
tp8099
F0
s(I0
(I2
I-5
I-1
tp8100
tp8101
F-15.999902155534043
s(I0
g7700
tp8102
F0.36204624537328833
s(I0
g2723
tp8103
F0.047885438004284173
s(I1
(I0
I7
I4
tp8104
tp8105
F-99.999995556349305
s(I1
g3160
tp8106
F0.16376361368594911
s(I1
g613
tp8107
F-99.999989893209758
s(I0
g7979
tp8108
F-99.999938173178222
s(I0
g1434
tp8109
F0
s(I1
g5985
tp8110
F-39.999990318823357
s(I0
g2938
tp8111
F-99.999964473966472
s(I0
g5303
tp8112
F1.0240728847333096
s(I1
g7280
tp8113
F-16.19948886186274
s(I1
g7984
tp8114
F-0.9085247980520752
s(I1
(I5
I3
I1
tp8115
tp8116
F1.0240583900247318
s(I1
(I1
I13
I-1
tp8117
tp8118
F0
s(I1
g4143
tp8119
F0
s(I0
g7515
tp8120
F-99.999964249622678
s(I0
g6246
tp8121
F0
s(I0
g4077
tp8122
F0
s(I0
g7165
tp8123
F0
s(I0
g713
tp8124
F0
s(I1
g5840
tp8125
F-0.12716849618935466
s(I0
g5962
tp8126
F0
s(I1
g4368
tp8127
F0.065495319008357769
s(I1
g2754
tp8128
F-99.999998002178899
s(I0
g2676
tp8129
F0
s(I1
g7459
tp8130
F-15.999989955960311
s(I1
g5267
tp8131
F-99.850343900172106
s(I0
g4947
tp8132
F0
s(I1
g2966
tp8133
F2.5602683251773595
s(I0
g6792
tp8134
F0
s(I0
g1898
tp8135
F0
s(I1
g6934
tp8136
F-15.999992867346929
s(I0
g8007
tp8137
F0
s(I1
g2081
tp8138
F0
s(I0
g7188
tp8139
F-99.999822306535719
s(I0
g8024
tp8140
F0
s(I0
g3148
tp8141
F0
s(I1
(I6
I12
I3
tp8142
tp8143
F0
s(I0
g5687
tp8144
F0.00010494976262901058
s(I1
g6014
tp8145
F0
s(I1
g1284
tp8146
F-40.007113455692284
s(I1
g7638
tp8147
F0
s(I0
g4803
tp8148
F-99.999999601009577
s(I1
g3378
tp8149
F0
s(I1
g8019
tp8150
F1.0241072148577735
s(I0
g7680
tp8151
F-99.999968774011265
s(I0
g4177
tp8152
F-99.99855897472662
s(I0
g2829
tp8153
F0
s(I0
g2220
tp8154
F0
s(I1
g7650
tp8155
F0
s(I0
g5796
tp8156
F0
s(I0
g5578
tp8157
F0
s(I1
g493
tp8158
F0
s(I0
g7986
tp8159
F0.16020938015389588
s(I0
g3478
tp8160
F0
s(I0
g7476
tp8161
F0
s(I1
g8100
tp8162
F-95.799787266958191
s(I1
(I8
I-14
I1
tp8163
tp8164
F0
s(I0
g6061
tp8165
F6.4006656088943608
s(I0
(I10
I-14
I2
tp8166
tp8167
F0
s(I1
g8053
tp8168
F0
s(I0
g7389
tp8169
F-99.999967661834447
s(I1
g3644
tp8170
F0
s(I0
g5508
tp8171
F-15.999987274095666
s(I1
g7234
tp8172
F2.0668751136948816e-05
s(I1
g2258
tp8173
F0
s(I1
g3192
tp8174
F0
s(I1
g1464
tp8175
F0.025909371683497391
s(I1
g866
tp8176
F0
s(I0
g1203
tp8177
F0
s(I0
g7962
tp8178
F0
s(I0
g8163
tp8179
F0
s(I0
g4305
tp8180
F-99.999998928496723
s(I0
g1954
tp8181
F0
s(I0
g7171
tp8182
F0
s(I1
g8166
tp8183
F0
s(I0
g5193
tp8184
F0
s(I1
g767
tp8185
F0.40964269974646816
s(I0
g1502
tp8186
F0
s(I1
g2371
tp8187
F0
s(I1
g7696
tp8188
F0
s(I1
g2369
tp8189
F0
s(I0
g3454
tp8190
F0
s(I1
g6806
tp8191
F-6.3451199265285139
s(I1
g4841
tp8192
F0.065542857304619451
s(I1
g5538
tp8193
F0.0099322660969386536
s(I1
g1557
tp8194
F0
s(I1
g2946
tp8195
F0
s(I0
g5940
tp8196
F0
s(I1
g787
tp8197
F0.16323982389360853
s(I0
g4147
tp8198
F0
s(I0
g1528
tp8199
F0
s(I0
g3448
tp8200
F0
s(I1
g2260
tp8201
F-39.999891905147798
s(I0
g7713
tp8202
F0
s(I0
g8117
tp8203
F0
s(I1
g6673
tp8204
F0
s(I1
g6538
tp8205
F0
s(I0
g5828
tp8206
F0
s(I1
(I7
I-9
I1
tp8207
tp8208
F-0.52794733738710686
s(I1
g1413
tp8209
F0.058343204866496766
s(I1
g2206
tp8210
F-99.987490789956809
s(I1
g7753
tp8211
F-6.3997931452039332
s(I0
g3486
tp8212
F-99.999926801619324
s(I1
g6137
tp8213
F-0.99307866766726738
s(I0
g2315
tp8214
F0
s(I0
g6690
tp8215
F0
s(I0
g8104
tp8216
F-99.999960555587563
s(I0
g2325
tp8217
F0
s(I0
g7762
tp8218
F0
s(I1
g2185
tp8219
F0
s(I1
g1563
tp8220
F0
s(I0
g5082
tp8221
F0
s(I1
g5938
tp8222
F0
s(I0
g8207
tp8223
F0.16331356186390894
s(I1
g6743
tp8224
F0
s(I1
g676
tp8225
F0
s(I0
g2698
tp8226
F0
s(I0
g6712
tp8227
F-39.899915684830361
s(I0
g3657
tp8228
F0
s(I0
g7739
tp8229
F-99.999998862717476
s(I0
g8115
tp8230
F0.78417443809035436
s(I1
g6289
tp8231
F0
s(I0
g6563
tp8232
F0
s(I0
g1583
tp8233
F0
s(I0
g6512
tp8234
F0
s(I0
g6180
tp8235
F0.065286406756415366
s(I1
g4624
tp8236
F0
s(I1
g7054
tp8237
F0
s(I0
g6651
tp8238
F0
s(I0
g3116
tp8239
F0
s(I0
g8142
tp8240
F0
s(I1
g2262
tp8241
F0
s(I0
g5996
tp8242
F-0.0005944466870649659
s(I1
g131
tp8243
F0
s(I0
g73
tp8244
F0
s(I1
g2707
tp8245
F-99.999962712892838
s(I1
g1158
tp8246
F0
s(I1
g1630
tp8247
F0.16385704011649738
s(I0
g7255
tp8248
F-4.962590318937572
s(I0
g7766
tp8249
F0
s(I1
g4845
tp8250
F0
s(I1
g883
tp8251
F40.004138117957382
s(I1
g2482
tp8252
F0
s(I1
g5431
tp8253
F0.025540360326711802
s(I0
g474
tp8254
F0
s(I1
g6009
tp8255
F-6.3984851148649051
s(I0
g7186
tp8256
F0
s(I0
g105
tp8257
F0
s(I0
(I10
I-12
I4
tp8258
tp8259
F0
s(I0
g896
tp8260
F-99.999797094049853
s(I0
g4924
tp8261
F-39.999981029568985
s(I1
g519
tp8262
F-39.999997371291606
s(I1
(I5
I6
I4
tp8263
tp8264
F1.0241072795124788
s(I1
g690
tp8265
F0.16241667340844396
s(I1
g6758
tp8266
F0
s(I0
g5371
tp8267
F0
s(I0
g1014
tp8268
F0.82211388715192479
s(I0
g1495
tp8269
F1.0228411358758975
s(I0
g5970
tp8270
F0
s(I0
g6031
tp8271
F0
s(I1
g2972
tp8272
F0
s(I0
g1539
tp8273
F0
s(I1
(I-1
I7
I4
tp8274
tp8275
F9.4255732762547266e-06
s(I1
g8258
tp8276
F0
s(I1
g3575
tp8277
F0
s(I0
g5533
tp8278
F5.4919460275614125e-05
s(I1
g7357
tp8279
F0
s(I1
g750
tp8280
F0
s(I1
g4743
tp8281
F-2.4121663296921527
s(I0
g4349
tp8282
F0
s(I0
g8263
tp8283
F-99.999990514117954
s(I0
g6047
tp8284
F100.01048644694065
s(I1
(I1
I-10
I4
tp8285
tp8286
F0
s(I1
g775
tp8287
F0
s(I0
g3013
tp8288
F0
s(I0
g4851
tp8289
F0
s(I0
g8274
tp8290
F-99.999989681442116
s(I0
g5656
tp8291
F0
s(I0
g6640
tp8292
F0
s(I1
g3348
tp8293
F-5.8195365213699528
s(I1
g5488
tp8294
F0
s(I1
g6071
tp8295
F0.060694363930053577
s(I1
g824
tp8296
F-99.999928910259271
s(I0
g6718
tp8297
F5.8777753197271609
s(I1
g7549
tp8298
F0
s(I0
g7253
tp8299
F0
s(I0
g7835
tp8300
F0
s(I0
g4008
tp8301
F0.065541585334338959
s(I1
g2974
tp8302
F0
s(I1
g2488
tp8303
F-6.4259489893329471
s(I1
g3005
tp8304
F-16.009965161544166
s(I1
g7865
tp8305
F0
s(I1
g3035
tp8306
F0
s(I1
g7868
tp8307
F-99.999435169452553
s(I1
g4856
tp8308
F-95.296929047613091
s(I0
g8285
tp8309
F0
s(I0
g3607
tp8310
F-99.999993731362707
s(I0
g1293
tp8311
F-2.5599991875272097
s(I0
g7146
tp8312
F-15.999967995983717
s(I1
g7732
tp8313
F-99.999898007635053
s(I0
g5520
tp8314
F-99.99879739907054
s(I1
g5336
tp8315
F36.183352074831461
s(I0
g1372
tp8316
F0
s(I0
g1637
tp8317
F0
s(I0
g7338
tp8318
F0
s(I0
g2891
tp8319
F0
s(I0
g1803
tp8320
F0
ssS'alpha'
p8321
F0.94999999999999996
sS'gamma'
p8322
F0.40000000000000002
sS'train_count'
p8323
I468435167
s.